
coremark:     file format elf32-tradlittlemips


Disassembly of section .text:

004000b0 <main>:
  4000b0:	27bdff70 	addiu	sp,sp,-144
  4000b4:	afbf008c 	sw	ra,140(sp)
  4000b8:	afbe0088 	sw	s8,136(sp)
  4000bc:	afb00084 	sw	s0,132(sp)
  4000c0:	03a0f025 	move	s8,sp
  4000c4:	afc00030 	sw	zero,48(s8)
  4000c8:	a7c00012 	sh	zero,18(s8)
  4000cc:	a7c00014 	sh	zero,20(s8)
  4000d0:	2402ffff 	li	v0,-1
  4000d4:	a7c20016 	sh	v0,22(s8)
  4000d8:	a7c00018 	sh	zero,24(s8)
  4000dc:	a7c00028 	sh	zero,40(s8)
  4000e0:	27c20038 	addiu	v0,s8,56
  4000e4:	24440042 	addiu	a0,v0,66
  4000e8:	27c30030 	addiu	v1,s8,48
  4000ec:	27c20034 	addiu	v0,s8,52
  4000f0:	00602825 	move	a1,v1
  4000f4:	00403025 	move	a2,v0
  4000f8:	0c100b5b 	jal	402d6c <portable_init>
  4000fc:	00000000 	nop
  400100:	24040001 	li	a0,1
  400104:	0c100dfa 	jal	4037e8 <get_seed_32>
  400108:	00000000 	nop
  40010c:	00021400 	sll	v0,v0,0x10
  400110:	00021403 	sra	v0,v0,0x10
  400114:	a7c20038 	sh	v0,56(s8)
  400118:	24040002 	li	a0,2
  40011c:	0c100dfa 	jal	4037e8 <get_seed_32>
  400120:	00000000 	nop
  400124:	00021400 	sll	v0,v0,0x10
  400128:	00021403 	sra	v0,v0,0x10
  40012c:	a7c2003a 	sh	v0,58(s8)
  400130:	24040003 	li	a0,3
  400134:	0c100dfa 	jal	4037e8 <get_seed_32>
  400138:	00000000 	nop
  40013c:	00021400 	sll	v0,v0,0x10
  400140:	00021403 	sra	v0,v0,0x10
  400144:	a7c2003c 	sh	v0,60(s8)
  400148:	24040004 	li	a0,4
  40014c:	0c100dfa 	jal	4037e8 <get_seed_32>
  400150:	00000000 	nop
  400154:	afc20054 	sw	v0,84(s8)
  400158:	24040005 	li	a0,5
  40015c:	0c100dfa 	jal	4037e8 <get_seed_32>
  400160:	00000000 	nop
  400164:	afc20058 	sw	v0,88(s8)
  400168:	8fc20058 	lw	v0,88(s8)
  40016c:	14400003 	bnez	v0,40017c <main+0xcc>
  400170:	00000000 	nop
  400174:	24020007 	li	v0,7
  400178:	afc20058 	sw	v0,88(s8)
  40017c:	87c20038 	lh	v0,56(s8)
  400180:	1440000b 	bnez	v0,4001b0 <main+0x100>
  400184:	00000000 	nop
  400188:	87c2003a 	lh	v0,58(s8)
  40018c:	14400008 	bnez	v0,4001b0 <main+0x100>
  400190:	00000000 	nop
  400194:	87c2003c 	lh	v0,60(s8)
  400198:	14400005 	bnez	v0,4001b0 <main+0x100>
  40019c:	00000000 	nop
  4001a0:	a7c00038 	sh	zero,56(s8)
  4001a4:	a7c0003a 	sh	zero,58(s8)
  4001a8:	24020066 	li	v0,102
  4001ac:	a7c2003c 	sh	v0,60(s8)
  4001b0:	87c30038 	lh	v1,56(s8)
  4001b4:	24020001 	li	v0,1
  4001b8:	1462000d 	bne	v1,v0,4001f0 <main+0x140>
  4001bc:	00000000 	nop
  4001c0:	87c2003a 	lh	v0,58(s8)
  4001c4:	1440000a 	bnez	v0,4001f0 <main+0x140>
  4001c8:	00000000 	nop
  4001cc:	87c2003c 	lh	v0,60(s8)
  4001d0:	14400007 	bnez	v0,4001f0 <main+0x140>
  4001d4:	00000000 	nop
  4001d8:	24023415 	li	v0,13333
  4001dc:	a7c20038 	sh	v0,56(s8)
  4001e0:	24023415 	li	v0,13333
  4001e4:	a7c2003a 	sh	v0,58(s8)
  4001e8:	24020066 	li	v0,102
  4001ec:	a7c2003c 	sh	v0,60(s8)
  4001f0:	3c020041 	lui	v0,0x41
  4001f4:	2442557c 	addiu	v0,v0,21884
  4001f8:	afc20040 	sw	v0,64(s8)
  4001fc:	240207d0 	li	v0,2000
  400200:	afc20050 	sw	v0,80(s8)
  400204:	a7c00078 	sh	zero,120(s8)
  400208:	a7c00010 	sh	zero,16(s8)
  40020c:	1000000f 	b	40024c <main+0x19c>
  400210:	00000000 	nop
  400214:	97c20010 	lhu	v0,16(s8)
  400218:	24030001 	li	v1,1
  40021c:	00431004 	sllv	v0,v1,v0
  400220:	00401825 	move	v1,v0
  400224:	8fc20058 	lw	v0,88(s8)
  400228:	00621024 	and	v0,v1,v0
  40022c:	10400004 	beqz	v0,400240 <main+0x190>
  400230:	00000000 	nop
  400234:	97c20014 	lhu	v0,20(s8)
  400238:	24420001 	addiu	v0,v0,1
  40023c:	a7c20014 	sh	v0,20(s8)
  400240:	97c20010 	lhu	v0,16(s8)
  400244:	24420001 	addiu	v0,v0,1
  400248:	a7c20010 	sh	v0,16(s8)
  40024c:	97c20010 	lhu	v0,16(s8)
  400250:	2c420003 	sltiu	v0,v0,3
  400254:	1440ffef 	bnez	v0,400214 <main+0x164>
  400258:	00000000 	nop
  40025c:	a7c00010 	sh	zero,16(s8)
  400260:	10000018 	b	4002c4 <main+0x214>
  400264:	00000000 	nop
  400268:	97c50010 	lhu	a1,16(s8)
  40026c:	97c20010 	lhu	v0,16(s8)
  400270:	00021080 	sll	v0,v0,0x2
  400274:	00021900 	sll	v1,v0,0x4
  400278:	00431021 	addu	v0,v0,v1
  40027c:	27c30010 	addiu	v1,s8,16
  400280:	00621021 	addu	v0,v1,v0
  400284:	8c430040 	lw	v1,64(v0)
  400288:	97c20014 	lhu	v0,20(s8)
  40028c:	0062001b 	divu	zero,v1,v0
  400290:	004001f4 	teq	v0,zero,0x7
  400294:	00001010 	mfhi	v0
  400298:	00002012 	mflo	a0
  40029c:	00a01025 	move	v0,a1
  4002a0:	00021080 	sll	v0,v0,0x2
  4002a4:	00021900 	sll	v1,v0,0x4
  4002a8:	00431021 	addu	v0,v0,v1
  4002ac:	27c30010 	addiu	v1,s8,16
  4002b0:	00621021 	addu	v0,v1,v0
  4002b4:	ac440040 	sw	a0,64(v0)
  4002b8:	97c20010 	lhu	v0,16(s8)
  4002bc:	24420001 	addiu	v0,v0,1
  4002c0:	a7c20010 	sh	v0,16(s8)
  4002c4:	97c20010 	lhu	v0,16(s8)
  4002c8:	1040ffe7 	beqz	v0,400268 <main+0x1b8>
  4002cc:	00000000 	nop
  4002d0:	a7c00010 	sh	zero,16(s8)
  4002d4:	10000030 	b	400398 <main+0x2e8>
  4002d8:	00000000 	nop
  4002dc:	97c20010 	lhu	v0,16(s8)
  4002e0:	24030001 	li	v1,1
  4002e4:	00431004 	sllv	v0,v1,v0
  4002e8:	00401825 	move	v1,v0
  4002ec:	8fc20058 	lw	v0,88(s8)
  4002f0:	00621024 	and	v0,v1,v0
  4002f4:	10400025 	beqz	v0,40038c <main+0x2dc>
  4002f8:	00000000 	nop
  4002fc:	afc0001c 	sw	zero,28(s8)
  400300:	1000001c 	b	400374 <main+0x2c4>
  400304:	00000000 	nop
  400308:	97c20010 	lhu	v0,16(s8)
  40030c:	24450001 	addiu	a1,v0,1
  400310:	8fc2001c 	lw	v0,28(s8)
  400314:	00021080 	sll	v0,v0,0x2
  400318:	00021900 	sll	v1,v0,0x4
  40031c:	00431021 	addu	v0,v0,v1
  400320:	27c30010 	addiu	v1,s8,16
  400324:	00621021 	addu	v0,v1,v0
  400328:	8c420030 	lw	v0,48(v0)
  40032c:	8fc40050 	lw	a0,80(s8)
  400330:	97c30012 	lhu	v1,18(s8)
  400334:	00830018 	mult	a0,v1
  400338:	00001812 	mflo	v1
  40033c:	00432021 	addu	a0,v0,v1
  400340:	8fc3001c 	lw	v1,28(s8)
  400344:	00601025 	move	v0,v1
  400348:	00021100 	sll	v0,v0,0x4
  40034c:	00431021 	addu	v0,v0,v1
  400350:	00451021 	addu	v0,v0,a1
  400354:	24420002 	addiu	v0,v0,2
  400358:	00021080 	sll	v0,v0,0x2
  40035c:	27c30010 	addiu	v1,s8,16
  400360:	00621021 	addu	v0,v1,v0
  400364:	ac440028 	sw	a0,40(v0)
  400368:	8fc2001c 	lw	v0,28(s8)
  40036c:	24420001 	addiu	v0,v0,1
  400370:	afc2001c 	sw	v0,28(s8)
  400374:	8fc2001c 	lw	v0,28(s8)
  400378:	1040ffe3 	beqz	v0,400308 <main+0x258>
  40037c:	00000000 	nop
  400380:	97c20012 	lhu	v0,18(s8)
  400384:	24420001 	addiu	v0,v0,1
  400388:	a7c20012 	sh	v0,18(s8)
  40038c:	97c20010 	lhu	v0,16(s8)
  400390:	24420001 	addiu	v0,v0,1
  400394:	a7c20010 	sh	v0,16(s8)
  400398:	97c20010 	lhu	v0,16(s8)
  40039c:	2c420003 	sltiu	v0,v0,3
  4003a0:	1440ffce 	bnez	v0,4002dc <main+0x22c>
  4003a4:	00000000 	nop
  4003a8:	a7c00010 	sh	zero,16(s8)
  4003ac:	10000074 	b	400580 <main+0x4d0>
  4003b0:	00000000 	nop
  4003b4:	97c20010 	lhu	v0,16(s8)
  4003b8:	00021080 	sll	v0,v0,0x2
  4003bc:	00021900 	sll	v1,v0,0x4
  4003c0:	00431021 	addu	v0,v0,v1
  4003c4:	27c30010 	addiu	v1,s8,16
  4003c8:	00621021 	addu	v0,v1,v0
  4003cc:	8c420048 	lw	v0,72(v0)
  4003d0:	30420001 	andi	v0,v0,0x1
  4003d4:	1040001c 	beqz	v0,400448 <main+0x398>
  4003d8:	00000000 	nop
  4003dc:	97d00010 	lhu	s0,16(s8)
  4003e0:	8fc40050 	lw	a0,80(s8)
  4003e4:	97c20010 	lhu	v0,16(s8)
  4003e8:	00021080 	sll	v0,v0,0x2
  4003ec:	00021900 	sll	v1,v0,0x4
  4003f0:	00431021 	addu	v0,v0,v1
  4003f4:	27c30010 	addiu	v1,s8,16
  4003f8:	00621021 	addu	v0,v1,v0
  4003fc:	8c450034 	lw	a1,52(v0)
  400400:	97c20010 	lhu	v0,16(s8)
  400404:	00021080 	sll	v0,v0,0x2
  400408:	00021900 	sll	v1,v0,0x4
  40040c:	00431021 	addu	v0,v0,v1
  400410:	27c30010 	addiu	v1,s8,16
  400414:	00621021 	addu	v0,v1,v0
  400418:	84420028 	lh	v0,40(v0)
  40041c:	00403025 	move	a2,v0
  400420:	0c1005ed 	jal	4017b4 <core_list_init>
  400424:	00000000 	nop
  400428:	00402025 	move	a0,v0
  40042c:	02001025 	move	v0,s0
  400430:	00021080 	sll	v0,v0,0x2
  400434:	00021900 	sll	v1,v0,0x4
  400438:	00431021 	addu	v0,v0,v1
  40043c:	27c30010 	addiu	v1,s8,16
  400440:	00621021 	addu	v0,v1,v0
  400444:	ac44004c 	sw	a0,76(v0)
  400448:	97c20010 	lhu	v0,16(s8)
  40044c:	00021080 	sll	v0,v0,0x2
  400450:	00021900 	sll	v1,v0,0x4
  400454:	00431021 	addu	v0,v0,v1
  400458:	27c30010 	addiu	v1,s8,16
  40045c:	00621021 	addu	v0,v1,v0
  400460:	8c420048 	lw	v0,72(v0)
  400464:	30420002 	andi	v0,v0,0x2
  400468:	10400025 	beqz	v0,400500 <main+0x450>
  40046c:	00000000 	nop
  400470:	8fc70050 	lw	a3,80(s8)
  400474:	97c20010 	lhu	v0,16(s8)
  400478:	00021080 	sll	v0,v0,0x2
  40047c:	00021900 	sll	v1,v0,0x4
  400480:	00431021 	addu	v0,v0,v1
  400484:	27c30010 	addiu	v1,s8,16
  400488:	00621021 	addu	v0,v1,v0
  40048c:	8c450038 	lw	a1,56(v0)
  400490:	97c20010 	lhu	v0,16(s8)
  400494:	00021080 	sll	v0,v0,0x2
  400498:	00021900 	sll	v1,v0,0x4
  40049c:	00431021 	addu	v0,v0,v1
  4004a0:	27c30010 	addiu	v1,s8,16
  4004a4:	00621021 	addu	v0,v1,v0
  4004a8:	84420028 	lh	v0,40(v0)
  4004ac:	00402025 	move	a0,v0
  4004b0:	97c20010 	lhu	v0,16(s8)
  4004b4:	00021080 	sll	v0,v0,0x2
  4004b8:	00021900 	sll	v1,v0,0x4
  4004bc:	00431021 	addu	v0,v0,v1
  4004c0:	27c30010 	addiu	v1,s8,16
  4004c4:	00621021 	addu	v0,v1,v0
  4004c8:	8442002a 	lh	v0,42(v0)
  4004cc:	00021400 	sll	v0,v0,0x10
  4004d0:	00823025 	or	a2,a0,v0
  4004d4:	97c20010 	lhu	v0,16(s8)
  4004d8:	27c30038 	addiu	v1,s8,56
  4004dc:	00021080 	sll	v0,v0,0x2
  4004e0:	00022100 	sll	a0,v0,0x4
  4004e4:	00441021 	addu	v0,v0,a0
  4004e8:	24420028 	addiu	v0,v0,40
  4004ec:	00621021 	addu	v0,v1,v0
  4004f0:	00e02025 	move	a0,a3
  4004f4:	00403825 	move	a3,v0
  4004f8:	0c1008a4 	jal	402290 <core_init_matrix>
  4004fc:	00000000 	nop
  400500:	97c20010 	lhu	v0,16(s8)
  400504:	00021080 	sll	v0,v0,0x2
  400508:	00021900 	sll	v1,v0,0x4
  40050c:	00431021 	addu	v0,v0,v1
  400510:	27c30010 	addiu	v1,s8,16
  400514:	00621021 	addu	v0,v1,v0
  400518:	8c420048 	lw	v0,72(v0)
  40051c:	30420004 	andi	v0,v0,0x4
  400520:	10400014 	beqz	v0,400574 <main+0x4c4>
  400524:	00000000 	nop
  400528:	8fc40050 	lw	a0,80(s8)
  40052c:	97c20010 	lhu	v0,16(s8)
  400530:	00021080 	sll	v0,v0,0x2
  400534:	00021900 	sll	v1,v0,0x4
  400538:	00431021 	addu	v0,v0,v1
  40053c:	27c30010 	addiu	v1,s8,16
  400540:	00621021 	addu	v0,v1,v0
  400544:	84420028 	lh	v0,40(v0)
  400548:	00402825 	move	a1,v0
  40054c:	97c20010 	lhu	v0,16(s8)
  400550:	00021080 	sll	v0,v0,0x2
  400554:	00021900 	sll	v1,v0,0x4
  400558:	00431021 	addu	v0,v0,v1
  40055c:	27c30010 	addiu	v1,s8,16
  400560:	00621021 	addu	v0,v1,v0
  400564:	8c42003c 	lw	v0,60(v0)
  400568:	00403025 	move	a2,v0
  40056c:	0c100c31 	jal	4030c4 <core_init_state>
  400570:	00000000 	nop
  400574:	97c20010 	lhu	v0,16(s8)
  400578:	24420001 	addiu	v0,v0,1
  40057c:	a7c20010 	sh	v0,16(s8)
  400580:	97c20010 	lhu	v0,16(s8)
  400584:	1040ff8b 	beqz	v0,4003b4 <main+0x304>
  400588:	00000000 	nop
  40058c:	8fc20054 	lw	v0,84(s8)
  400590:	1440002e 	bnez	v0,40064c <main+0x59c>
  400594:	00000000 	nop
  400598:	afc00020 	sw	zero,32(s8)
  40059c:	24020001 	li	v0,1
  4005a0:	afc20054 	sw	v0,84(s8)
  4005a4:	10000014 	b	4005f8 <main+0x548>
  4005a8:	00000000 	nop
  4005ac:	8fc20054 	lw	v0,84(s8)
  4005b0:	00021040 	sll	v0,v0,0x1
  4005b4:	00021880 	sll	v1,v0,0x2
  4005b8:	00431021 	addu	v0,v0,v1
  4005bc:	afc20054 	sw	v0,84(s8)
  4005c0:	0c100b23 	jal	402c8c <start_time>
  4005c4:	00000000 	nop
  4005c8:	27c20038 	addiu	v0,s8,56
  4005cc:	00402025 	move	a0,v0
  4005d0:	0c1003d8 	jal	400f60 <iterate>
  4005d4:	00000000 	nop
  4005d8:	0c100b30 	jal	402cc0 <stop_time>
  4005dc:	00000000 	nop
  4005e0:	0c100b3d 	jal	402cf4 <get_time>
  4005e4:	00000000 	nop
  4005e8:	00402025 	move	a0,v0
  4005ec:	0c100b4a 	jal	402d28 <time_in_secs>
  4005f0:	00000000 	nop
  4005f4:	afc20020 	sw	v0,32(s8)
  4005f8:	8fc20020 	lw	v0,32(s8)
  4005fc:	1040ffeb 	beqz	v0,4005ac <main+0x4fc>
  400600:	00000000 	nop
  400604:	8fc20020 	lw	v0,32(s8)
  400608:	afc20024 	sw	v0,36(s8)
  40060c:	8fc20024 	lw	v0,36(s8)
  400610:	14400003 	bnez	v0,400620 <main+0x570>
  400614:	00000000 	nop
  400618:	24020001 	li	v0,1
  40061c:	afc20024 	sw	v0,36(s8)
  400620:	8fc30054 	lw	v1,84(s8)
  400624:	2404000a 	li	a0,10
  400628:	8fc20024 	lw	v0,36(s8)
  40062c:	0082001b 	divu	zero,a0,v0
  400630:	004001f4 	teq	v0,zero,0x7
  400634:	00001010 	mfhi	v0
  400638:	00001012 	mflo	v0
  40063c:	24420001 	addiu	v0,v0,1
  400640:	00620018 	mult	v1,v0
  400644:	00001012 	mflo	v0
  400648:	afc20054 	sw	v0,84(s8)
  40064c:	0c100b23 	jal	402c8c <start_time>
  400650:	00000000 	nop
  400654:	27c20038 	addiu	v0,s8,56
  400658:	00402025 	move	a0,v0
  40065c:	0c1003d8 	jal	400f60 <iterate>
  400660:	00000000 	nop
  400664:	0c100b30 	jal	402cc0 <stop_time>
  400668:	00000000 	nop
  40066c:	0c100b3d 	jal	402cf4 <get_time>
  400670:	00000000 	nop
  400674:	afc2002c 	sw	v0,44(s8)
  400678:	87c20038 	lh	v0,56(s8)
  40067c:	00401825 	move	v1,v0
  400680:	97c20028 	lhu	v0,40(s8)
  400684:	00602025 	move	a0,v1
  400688:	00402825 	move	a1,v0
  40068c:	0c100eb2 	jal	403ac8 <crc16>
  400690:	00000000 	nop
  400694:	a7c20028 	sh	v0,40(s8)
  400698:	87c2003a 	lh	v0,58(s8)
  40069c:	00401825 	move	v1,v0
  4006a0:	97c20028 	lhu	v0,40(s8)
  4006a4:	00602025 	move	a0,v1
  4006a8:	00402825 	move	a1,v0
  4006ac:	0c100eb2 	jal	403ac8 <crc16>
  4006b0:	00000000 	nop
  4006b4:	a7c20028 	sh	v0,40(s8)
  4006b8:	87c2003c 	lh	v0,60(s8)
  4006bc:	00401825 	move	v1,v0
  4006c0:	97c20028 	lhu	v0,40(s8)
  4006c4:	00602025 	move	a0,v1
  4006c8:	00402825 	move	a1,v0
  4006cc:	0c100eb2 	jal	403ac8 <crc16>
  4006d0:	00000000 	nop
  4006d4:	a7c20028 	sh	v0,40(s8)
  4006d8:	8fc20050 	lw	v0,80(s8)
  4006dc:	00021400 	sll	v0,v0,0x10
  4006e0:	00021403 	sra	v0,v0,0x10
  4006e4:	00401825 	move	v1,v0
  4006e8:	97c20028 	lhu	v0,40(s8)
  4006ec:	00602025 	move	a0,v1
  4006f0:	00402825 	move	a1,v0
  4006f4:	0c100eb2 	jal	403ac8 <crc16>
  4006f8:	00000000 	nop
  4006fc:	a7c20028 	sh	v0,40(s8)
  400700:	97c20028 	lhu	v0,40(s8)
  400704:	24037b05 	li	v1,31493
  400708:	1043001b 	beq	v0,v1,400778 <main+0x6c8>
  40070c:	00000000 	nop
  400710:	28437b06 	slti	v1,v0,31494
  400714:	10600009 	beqz	v1,40073c <main+0x68c>
  400718:	00000000 	nop
  40071c:	240318f2 	li	v1,6386
  400720:	1043002d 	beq	v0,v1,4007d8 <main+0x728>
  400724:	00000000 	nop
  400728:	24034eaf 	li	v1,20143
  40072c:	1043001a 	beq	v0,v1,400798 <main+0x6e8>
  400730:	00000000 	nop
  400734:	10000030 	b	4007f8 <main+0x748>
  400738:	00000000 	nop
  40073c:	34038a02 	li	v1,0x8a02
  400740:	10430006 	beq	v0,v1,40075c <main+0x6ac>
  400744:	00000000 	nop
  400748:	3403e9f5 	li	v1,0xe9f5
  40074c:	1043001a 	beq	v0,v1,4007b8 <main+0x708>
  400750:	00000000 	nop
  400754:	10000028 	b	4007f8 <main+0x748>
  400758:	00000000 	nop
  40075c:	a7c00016 	sh	zero,22(s8)
  400760:	3c020040 	lui	v0,0x40
  400764:	24444e04 	addiu	a0,v0,19972
  400768:	0c10134f 	jal	404d3c <ee_printf>
  40076c:	00000000 	nop
  400770:	10000024 	b	400804 <main+0x754>
  400774:	00000000 	nop
  400778:	24020001 	li	v0,1
  40077c:	a7c20016 	sh	v0,22(s8)
  400780:	3c020040 	lui	v0,0x40
  400784:	24444e34 	addiu	a0,v0,20020
  400788:	0c10134f 	jal	404d3c <ee_printf>
  40078c:	00000000 	nop
  400790:	1000001c 	b	400804 <main+0x754>
  400794:	00000000 	nop
  400798:	24020002 	li	v0,2
  40079c:	a7c20016 	sh	v0,22(s8)
  4007a0:	3c020040 	lui	v0,0x40
  4007a4:	24444e60 	addiu	a0,v0,20064
  4007a8:	0c10134f 	jal	404d3c <ee_printf>
  4007ac:	00000000 	nop
  4007b0:	10000014 	b	400804 <main+0x754>
  4007b4:	00000000 	nop
  4007b8:	24020003 	li	v0,3
  4007bc:	a7c20016 	sh	v0,22(s8)
  4007c0:	3c020040 	lui	v0,0x40
  4007c4:	24444e94 	addiu	a0,v0,20116
  4007c8:	0c10134f 	jal	404d3c <ee_printf>
  4007cc:	00000000 	nop
  4007d0:	1000000c 	b	400804 <main+0x754>
  4007d4:	00000000 	nop
  4007d8:	24020004 	li	v0,4
  4007dc:	a7c20016 	sh	v0,22(s8)
  4007e0:	3c020040 	lui	v0,0x40
  4007e4:	24444ec4 	addiu	a0,v0,20164
  4007e8:	0c10134f 	jal	404d3c <ee_printf>
  4007ec:	00000000 	nop
  4007f0:	10000004 	b	400804 <main+0x754>
  4007f4:	00000000 	nop
  4007f8:	2402ffff 	li	v0,-1
  4007fc:	a7c20018 	sh	v0,24(s8)
  400800:	00000000 	nop
  400804:	87c20016 	lh	v0,22(s8)
  400808:	044000e5 	bltz	v0,400ba0 <main+0xaf0>
  40080c:	00000000 	nop
  400810:	a7c00010 	sh	zero,16(s8)
  400814:	100000dd 	b	400b8c <main+0xadc>
  400818:	00000000 	nop
  40081c:	97c20010 	lhu	v0,16(s8)
  400820:	00021080 	sll	v0,v0,0x2
  400824:	00021900 	sll	v1,v0,0x4
  400828:	00431021 	addu	v0,v0,v1
  40082c:	27c30010 	addiu	v1,s8,16
  400830:	00621021 	addu	v0,v1,v0
  400834:	a4400068 	sh	zero,104(v0)
  400838:	97c20010 	lhu	v0,16(s8)
  40083c:	00021080 	sll	v0,v0,0x2
  400840:	00021900 	sll	v1,v0,0x4
  400844:	00431021 	addu	v0,v0,v1
  400848:	27c30010 	addiu	v1,s8,16
  40084c:	00621021 	addu	v0,v1,v0
  400850:	8c420048 	lw	v0,72(v0)
  400854:	30420001 	andi	v0,v0,0x1
  400858:	10400039 	beqz	v0,400940 <main+0x890>
  40085c:	00000000 	nop
  400860:	97c20010 	lhu	v0,16(s8)
  400864:	00021080 	sll	v0,v0,0x2
  400868:	00021900 	sll	v1,v0,0x4
  40086c:	00431021 	addu	v0,v0,v1
  400870:	27c30010 	addiu	v1,s8,16
  400874:	00621021 	addu	v0,v1,v0
  400878:	94430062 	lhu	v1,98(v0)
  40087c:	87c40016 	lh	a0,22(s8)
  400880:	3c020041 	lui	v0,0x41
  400884:	00042040 	sll	a0,a0,0x1
  400888:	244254e4 	addiu	v0,v0,21732
  40088c:	00821021 	addu	v0,a0,v0
  400890:	94420000 	lhu	v0,0(v0)
  400894:	1062002a 	beq	v1,v0,400940 <main+0x890>
  400898:	00000000 	nop
  40089c:	97c50010 	lhu	a1,16(s8)
  4008a0:	97c20010 	lhu	v0,16(s8)
  4008a4:	00021080 	sll	v0,v0,0x2
  4008a8:	00021900 	sll	v1,v0,0x4
  4008ac:	00431021 	addu	v0,v0,v1
  4008b0:	27c30010 	addiu	v1,s8,16
  4008b4:	00621021 	addu	v0,v1,v0
  4008b8:	94420062 	lhu	v0,98(v0)
  4008bc:	00403025 	move	a2,v0
  4008c0:	87c30016 	lh	v1,22(s8)
  4008c4:	3c020041 	lui	v0,0x41
  4008c8:	00031840 	sll	v1,v1,0x1
  4008cc:	244254e4 	addiu	v0,v0,21732
  4008d0:	00621021 	addu	v0,v1,v0
  4008d4:	94420000 	lhu	v0,0(v0)
  4008d8:	00401825 	move	v1,v0
  4008dc:	3c020040 	lui	v0,0x40
  4008e0:	24444ef0 	addiu	a0,v0,20208
  4008e4:	00603825 	move	a3,v1
  4008e8:	0c10134f 	jal	404d3c <ee_printf>
  4008ec:	00000000 	nop
  4008f0:	97c40010 	lhu	a0,16(s8)
  4008f4:	00801025 	move	v0,a0
  4008f8:	00021080 	sll	v0,v0,0x2
  4008fc:	00021900 	sll	v1,v0,0x4
  400900:	00431021 	addu	v0,v0,v1
  400904:	27c30010 	addiu	v1,s8,16
  400908:	00621021 	addu	v0,v1,v0
  40090c:	84420068 	lh	v0,104(v0)
  400910:	3042ffff 	andi	v0,v0,0xffff
  400914:	24420001 	addiu	v0,v0,1
  400918:	3042ffff 	andi	v0,v0,0xffff
  40091c:	00021c00 	sll	v1,v0,0x10
  400920:	00031c03 	sra	v1,v1,0x10
  400924:	00801025 	move	v0,a0
  400928:	00021080 	sll	v0,v0,0x2
  40092c:	00022100 	sll	a0,v0,0x4
  400930:	00441021 	addu	v0,v0,a0
  400934:	27c40010 	addiu	a0,s8,16
  400938:	00821021 	addu	v0,a0,v0
  40093c:	a4430068 	sh	v1,104(v0)
  400940:	97c20010 	lhu	v0,16(s8)
  400944:	00021080 	sll	v0,v0,0x2
  400948:	00021900 	sll	v1,v0,0x4
  40094c:	00431021 	addu	v0,v0,v1
  400950:	27c30010 	addiu	v1,s8,16
  400954:	00621021 	addu	v0,v1,v0
  400958:	8c420048 	lw	v0,72(v0)
  40095c:	30420002 	andi	v0,v0,0x2
  400960:	10400039 	beqz	v0,400a48 <main+0x998>
  400964:	00000000 	nop
  400968:	97c20010 	lhu	v0,16(s8)
  40096c:	00021080 	sll	v0,v0,0x2
  400970:	00021900 	sll	v1,v0,0x4
  400974:	00431021 	addu	v0,v0,v1
  400978:	27c30010 	addiu	v1,s8,16
  40097c:	00621021 	addu	v0,v1,v0
  400980:	94430064 	lhu	v1,100(v0)
  400984:	87c40016 	lh	a0,22(s8)
  400988:	3c020041 	lui	v0,0x41
  40098c:	00042040 	sll	a0,a0,0x1
  400990:	244254f0 	addiu	v0,v0,21744
  400994:	00821021 	addu	v0,a0,v0
  400998:	94420000 	lhu	v0,0(v0)
  40099c:	1062002a 	beq	v1,v0,400a48 <main+0x998>
  4009a0:	00000000 	nop
  4009a4:	97c50010 	lhu	a1,16(s8)
  4009a8:	97c20010 	lhu	v0,16(s8)
  4009ac:	00021080 	sll	v0,v0,0x2
  4009b0:	00021900 	sll	v1,v0,0x4
  4009b4:	00431021 	addu	v0,v0,v1
  4009b8:	27c30010 	addiu	v1,s8,16
  4009bc:	00621021 	addu	v0,v1,v0
  4009c0:	94420064 	lhu	v0,100(v0)
  4009c4:	00403025 	move	a2,v0
  4009c8:	87c30016 	lh	v1,22(s8)
  4009cc:	3c020041 	lui	v0,0x41
  4009d0:	00031840 	sll	v1,v1,0x1
  4009d4:	244254f0 	addiu	v0,v0,21744
  4009d8:	00621021 	addu	v0,v1,v0
  4009dc:	94420000 	lhu	v0,0(v0)
  4009e0:	00401825 	move	v1,v0
  4009e4:	3c020040 	lui	v0,0x40
  4009e8:	24444f20 	addiu	a0,v0,20256
  4009ec:	00603825 	move	a3,v1
  4009f0:	0c10134f 	jal	404d3c <ee_printf>
  4009f4:	00000000 	nop
  4009f8:	97c40010 	lhu	a0,16(s8)
  4009fc:	00801025 	move	v0,a0
  400a00:	00021080 	sll	v0,v0,0x2
  400a04:	00021900 	sll	v1,v0,0x4
  400a08:	00431021 	addu	v0,v0,v1
  400a0c:	27c30010 	addiu	v1,s8,16
  400a10:	00621021 	addu	v0,v1,v0
  400a14:	84420068 	lh	v0,104(v0)
  400a18:	3042ffff 	andi	v0,v0,0xffff
  400a1c:	24420001 	addiu	v0,v0,1
  400a20:	3042ffff 	andi	v0,v0,0xffff
  400a24:	00021c00 	sll	v1,v0,0x10
  400a28:	00031c03 	sra	v1,v1,0x10
  400a2c:	00801025 	move	v0,a0
  400a30:	00021080 	sll	v0,v0,0x2
  400a34:	00022100 	sll	a0,v0,0x4
  400a38:	00441021 	addu	v0,v0,a0
  400a3c:	27c40010 	addiu	a0,s8,16
  400a40:	00821021 	addu	v0,a0,v0
  400a44:	a4430068 	sh	v1,104(v0)
  400a48:	97c20010 	lhu	v0,16(s8)
  400a4c:	00021080 	sll	v0,v0,0x2
  400a50:	00021900 	sll	v1,v0,0x4
  400a54:	00431021 	addu	v0,v0,v1
  400a58:	27c30010 	addiu	v1,s8,16
  400a5c:	00621021 	addu	v0,v1,v0
  400a60:	8c420048 	lw	v0,72(v0)
  400a64:	30420004 	andi	v0,v0,0x4
  400a68:	10400039 	beqz	v0,400b50 <main+0xaa0>
  400a6c:	00000000 	nop
  400a70:	97c20010 	lhu	v0,16(s8)
  400a74:	00021080 	sll	v0,v0,0x2
  400a78:	00021900 	sll	v1,v0,0x4
  400a7c:	00431021 	addu	v0,v0,v1
  400a80:	27c30010 	addiu	v1,s8,16
  400a84:	00621021 	addu	v0,v1,v0
  400a88:	94430066 	lhu	v1,102(v0)
  400a8c:	87c40016 	lh	a0,22(s8)
  400a90:	3c020041 	lui	v0,0x41
  400a94:	00042040 	sll	a0,a0,0x1
  400a98:	244254fc 	addiu	v0,v0,21756
  400a9c:	00821021 	addu	v0,a0,v0
  400aa0:	94420000 	lhu	v0,0(v0)
  400aa4:	1062002a 	beq	v1,v0,400b50 <main+0xaa0>
  400aa8:	00000000 	nop
  400aac:	97c50010 	lhu	a1,16(s8)
  400ab0:	97c20010 	lhu	v0,16(s8)
  400ab4:	00021080 	sll	v0,v0,0x2
  400ab8:	00021900 	sll	v1,v0,0x4
  400abc:	00431021 	addu	v0,v0,v1
  400ac0:	27c30010 	addiu	v1,s8,16
  400ac4:	00621021 	addu	v0,v1,v0
  400ac8:	94420066 	lhu	v0,102(v0)
  400acc:	00403025 	move	a2,v0
  400ad0:	87c30016 	lh	v1,22(s8)
  400ad4:	3c020041 	lui	v0,0x41
  400ad8:	00031840 	sll	v1,v1,0x1
  400adc:	244254fc 	addiu	v0,v0,21756
  400ae0:	00621021 	addu	v0,v1,v0
  400ae4:	94420000 	lhu	v0,0(v0)
  400ae8:	00401825 	move	v1,v0
  400aec:	3c020040 	lui	v0,0x40
  400af0:	24444f54 	addiu	a0,v0,20308
  400af4:	00603825 	move	a3,v1
  400af8:	0c10134f 	jal	404d3c <ee_printf>
  400afc:	00000000 	nop
  400b00:	97c40010 	lhu	a0,16(s8)
  400b04:	00801025 	move	v0,a0
  400b08:	00021080 	sll	v0,v0,0x2
  400b0c:	00021900 	sll	v1,v0,0x4
  400b10:	00431021 	addu	v0,v0,v1
  400b14:	27c30010 	addiu	v1,s8,16
  400b18:	00621021 	addu	v0,v1,v0
  400b1c:	84420068 	lh	v0,104(v0)
  400b20:	3042ffff 	andi	v0,v0,0xffff
  400b24:	24420001 	addiu	v0,v0,1
  400b28:	3042ffff 	andi	v0,v0,0xffff
  400b2c:	00021c00 	sll	v1,v0,0x10
  400b30:	00031c03 	sra	v1,v1,0x10
  400b34:	00801025 	move	v0,a0
  400b38:	00021080 	sll	v0,v0,0x2
  400b3c:	00022100 	sll	a0,v0,0x4
  400b40:	00441021 	addu	v0,v0,a0
  400b44:	27c40010 	addiu	a0,s8,16
  400b48:	00821021 	addu	v0,a0,v0
  400b4c:	a4430068 	sh	v1,104(v0)
  400b50:	97c20010 	lhu	v0,16(s8)
  400b54:	00021080 	sll	v0,v0,0x2
  400b58:	00021900 	sll	v1,v0,0x4
  400b5c:	00431021 	addu	v0,v0,v1
  400b60:	27c30010 	addiu	v1,s8,16
  400b64:	00621021 	addu	v0,v1,v0
  400b68:	84420068 	lh	v0,104(v0)
  400b6c:	3043ffff 	andi	v1,v0,0xffff
  400b70:	97c20018 	lhu	v0,24(s8)
  400b74:	00621021 	addu	v0,v1,v0
  400b78:	3042ffff 	andi	v0,v0,0xffff
  400b7c:	a7c20018 	sh	v0,24(s8)
  400b80:	97c20010 	lhu	v0,16(s8)
  400b84:	24420001 	addiu	v0,v0,1
  400b88:	a7c20010 	sh	v0,16(s8)
  400b8c:	97c30010 	lhu	v1,16(s8)
  400b90:	8f82800c 	lw	v0,-32756(gp)
  400b94:	0062102b 	sltu	v0,v1,v0
  400b98:	1440ff20 	bnez	v0,40081c <main+0x76c>
  400b9c:	00000000 	nop
  400ba0:	0c100ec7 	jal	403b1c <check_data_types>
  400ba4:	00000000 	nop
  400ba8:	3043ffff 	andi	v1,v0,0xffff
  400bac:	97c20018 	lhu	v0,24(s8)
  400bb0:	00621021 	addu	v0,v1,v0
  400bb4:	3042ffff 	andi	v0,v0,0xffff
  400bb8:	a7c20018 	sh	v0,24(s8)
  400bbc:	8fc30050 	lw	v1,80(s8)
  400bc0:	3c020040 	lui	v0,0x40
  400bc4:	24444f84 	addiu	a0,v0,20356
  400bc8:	00602825 	move	a1,v1
  400bcc:	0c10134f 	jal	404d3c <ee_printf>
  400bd0:	00000000 	nop
  400bd4:	3c020040 	lui	v0,0x40
  400bd8:	24444f9c 	addiu	a0,v0,20380
  400bdc:	8fc5002c 	lw	a1,44(s8)
  400be0:	0c10134f 	jal	404d3c <ee_printf>
  400be4:	00000000 	nop
  400be8:	8fc4002c 	lw	a0,44(s8)
  400bec:	0c100b4a 	jal	402d28 <time_in_secs>
  400bf0:	00000000 	nop
  400bf4:	00401825 	move	v1,v0
  400bf8:	3c020040 	lui	v0,0x40
  400bfc:	24444fb4 	addiu	a0,v0,20404
  400c00:	00602825 	move	a1,v1
  400c04:	0c10134f 	jal	404d3c <ee_printf>
  400c08:	00000000 	nop
  400c0c:	8fc4002c 	lw	a0,44(s8)
  400c10:	0c100b4a 	jal	402d28 <time_in_secs>
  400c14:	00000000 	nop
  400c18:	10400010 	beqz	v0,400c5c <main+0xbac>
  400c1c:	00000000 	nop
  400c20:	8fc30054 	lw	v1,84(s8)
  400c24:	8f82800c 	lw	v0,-32756(gp)
  400c28:	70628002 	mul	s0,v1,v0
  400c2c:	8fc4002c 	lw	a0,44(s8)
  400c30:	0c100b4a 	jal	402d28 <time_in_secs>
  400c34:	00000000 	nop
  400c38:	0202001b 	divu	zero,s0,v0
  400c3c:	004001f4 	teq	v0,zero,0x7
  400c40:	00001010 	mfhi	v0
  400c44:	00001812 	mflo	v1
  400c48:	3c020040 	lui	v0,0x40
  400c4c:	24444fcc 	addiu	a0,v0,20428
  400c50:	00602825 	move	a1,v1
  400c54:	0c10134f 	jal	404d3c <ee_printf>
  400c58:	00000000 	nop
  400c5c:	8fc4002c 	lw	a0,44(s8)
  400c60:	0c100b4a 	jal	402d28 <time_in_secs>
  400c64:	00000000 	nop
  400c68:	2c42000a 	sltiu	v0,v0,10
  400c6c:	1040000a 	beqz	v0,400c98 <main+0xbe8>
  400c70:	00000000 	nop
  400c74:	3c020040 	lui	v0,0x40
  400c78:	24444fe4 	addiu	a0,v0,20452
  400c7c:	0c10134f 	jal	404d3c <ee_printf>
  400c80:	00000000 	nop
  400c84:	87c20018 	lh	v0,24(s8)
  400c88:	3042ffff 	andi	v0,v0,0xffff
  400c8c:	24420001 	addiu	v0,v0,1
  400c90:	3042ffff 	andi	v0,v0,0xffff
  400c94:	a7c20018 	sh	v0,24(s8)
  400c98:	8fc30054 	lw	v1,84(s8)
  400c9c:	8f82800c 	lw	v0,-32756(gp)
  400ca0:	70621802 	mul	v1,v1,v0
  400ca4:	3c020040 	lui	v0,0x40
  400ca8:	24445024 	addiu	a0,v0,20516
  400cac:	00602825 	move	a1,v1
  400cb0:	0c10134f 	jal	404d3c <ee_printf>
  400cb4:	00000000 	nop
  400cb8:	3c020040 	lui	v0,0x40
  400cbc:	2444503c 	addiu	a0,v0,20540
  400cc0:	3c020040 	lui	v0,0x40
  400cc4:	24455054 	addiu	a1,v0,20564
  400cc8:	0c10134f 	jal	404d3c <ee_printf>
  400ccc:	00000000 	nop
  400cd0:	3c020040 	lui	v0,0x40
  400cd4:	24445060 	addiu	a0,v0,20576
  400cd8:	3c020040 	lui	v0,0x40
  400cdc:	24455078 	addiu	a1,v0,20600
  400ce0:	0c10134f 	jal	404d3c <ee_printf>
  400ce4:	00000000 	nop
  400ce8:	3c020040 	lui	v0,0x40
  400cec:	2444507c 	addiu	a0,v0,20604
  400cf0:	3c020040 	lui	v0,0x40
  400cf4:	24455094 	addiu	a1,v0,20628
  400cf8:	0c10134f 	jal	404d3c <ee_printf>
  400cfc:	00000000 	nop
  400d00:	97c30028 	lhu	v1,40(s8)
  400d04:	3c020040 	lui	v0,0x40
  400d08:	2444509c 	addiu	a0,v0,20636
  400d0c:	00602825 	move	a1,v1
  400d10:	0c10134f 	jal	404d3c <ee_printf>
  400d14:	00000000 	nop
  400d18:	8fc20058 	lw	v0,88(s8)
  400d1c:	30420001 	andi	v0,v0,0x1
  400d20:	1040001a 	beqz	v0,400d8c <main+0xcdc>
  400d24:	00000000 	nop
  400d28:	a7c00010 	sh	zero,16(s8)
  400d2c:	10000012 	b	400d78 <main+0xcc8>
  400d30:	00000000 	nop
  400d34:	97c50010 	lhu	a1,16(s8)
  400d38:	97c20010 	lhu	v0,16(s8)
  400d3c:	00021080 	sll	v0,v0,0x2
  400d40:	00021900 	sll	v1,v0,0x4
  400d44:	00431021 	addu	v0,v0,v1
  400d48:	27c30010 	addiu	v1,s8,16
  400d4c:	00621021 	addu	v0,v1,v0
  400d50:	94420062 	lhu	v0,98(v0)
  400d54:	00401825 	move	v1,v0
  400d58:	3c020040 	lui	v0,0x40
  400d5c:	244450b8 	addiu	a0,v0,20664
  400d60:	00603025 	move	a2,v1
  400d64:	0c10134f 	jal	404d3c <ee_printf>
  400d68:	00000000 	nop
  400d6c:	97c20010 	lhu	v0,16(s8)
  400d70:	24420001 	addiu	v0,v0,1
  400d74:	a7c20010 	sh	v0,16(s8)
  400d78:	97c30010 	lhu	v1,16(s8)
  400d7c:	8f82800c 	lw	v0,-32756(gp)
  400d80:	0062102b 	sltu	v0,v1,v0
  400d84:	1440ffeb 	bnez	v0,400d34 <main+0xc84>
  400d88:	00000000 	nop
  400d8c:	8fc20058 	lw	v0,88(s8)
  400d90:	30420002 	andi	v0,v0,0x2
  400d94:	1040001a 	beqz	v0,400e00 <main+0xd50>
  400d98:	00000000 	nop
  400d9c:	a7c00010 	sh	zero,16(s8)
  400da0:	10000012 	b	400dec <main+0xd3c>
  400da4:	00000000 	nop
  400da8:	97c50010 	lhu	a1,16(s8)
  400dac:	97c20010 	lhu	v0,16(s8)
  400db0:	00021080 	sll	v0,v0,0x2
  400db4:	00021900 	sll	v1,v0,0x4
  400db8:	00431021 	addu	v0,v0,v1
  400dbc:	27c30010 	addiu	v1,s8,16
  400dc0:	00621021 	addu	v0,v1,v0
  400dc4:	94420064 	lhu	v0,100(v0)
  400dc8:	00401825 	move	v1,v0
  400dcc:	3c020040 	lui	v0,0x40
  400dd0:	244450d4 	addiu	a0,v0,20692
  400dd4:	00603025 	move	a2,v1
  400dd8:	0c10134f 	jal	404d3c <ee_printf>
  400ddc:	00000000 	nop
  400de0:	97c20010 	lhu	v0,16(s8)
  400de4:	24420001 	addiu	v0,v0,1
  400de8:	a7c20010 	sh	v0,16(s8)
  400dec:	97c30010 	lhu	v1,16(s8)
  400df0:	8f82800c 	lw	v0,-32756(gp)
  400df4:	0062102b 	sltu	v0,v1,v0
  400df8:	1440ffeb 	bnez	v0,400da8 <main+0xcf8>
  400dfc:	00000000 	nop
  400e00:	8fc20058 	lw	v0,88(s8)
  400e04:	30420004 	andi	v0,v0,0x4
  400e08:	1040001a 	beqz	v0,400e74 <main+0xdc4>
  400e0c:	00000000 	nop
  400e10:	a7c00010 	sh	zero,16(s8)
  400e14:	10000012 	b	400e60 <main+0xdb0>
  400e18:	00000000 	nop
  400e1c:	97c50010 	lhu	a1,16(s8)
  400e20:	97c20010 	lhu	v0,16(s8)
  400e24:	00021080 	sll	v0,v0,0x2
  400e28:	00021900 	sll	v1,v0,0x4
  400e2c:	00431021 	addu	v0,v0,v1
  400e30:	27c30010 	addiu	v1,s8,16
  400e34:	00621021 	addu	v0,v1,v0
  400e38:	94420066 	lhu	v0,102(v0)
  400e3c:	00401825 	move	v1,v0
  400e40:	3c020040 	lui	v0,0x40
  400e44:	244450f0 	addiu	a0,v0,20720
  400e48:	00603025 	move	a2,v1
  400e4c:	0c10134f 	jal	404d3c <ee_printf>
  400e50:	00000000 	nop
  400e54:	97c20010 	lhu	v0,16(s8)
  400e58:	24420001 	addiu	v0,v0,1
  400e5c:	a7c20010 	sh	v0,16(s8)
  400e60:	97c30010 	lhu	v1,16(s8)
  400e64:	8f82800c 	lw	v0,-32756(gp)
  400e68:	0062102b 	sltu	v0,v1,v0
  400e6c:	1440ffeb 	bnez	v0,400e1c <main+0xd6c>
  400e70:	00000000 	nop
  400e74:	a7c00010 	sh	zero,16(s8)
  400e78:	10000012 	b	400ec4 <main+0xe14>
  400e7c:	00000000 	nop
  400e80:	97c50010 	lhu	a1,16(s8)
  400e84:	97c20010 	lhu	v0,16(s8)
  400e88:	00021080 	sll	v0,v0,0x2
  400e8c:	00021900 	sll	v1,v0,0x4
  400e90:	00431021 	addu	v0,v0,v1
  400e94:	27c30010 	addiu	v1,s8,16
  400e98:	00621021 	addu	v0,v1,v0
  400e9c:	94420060 	lhu	v0,96(v0)
  400ea0:	00401825 	move	v1,v0
  400ea4:	3c020040 	lui	v0,0x40
  400ea8:	2444510c 	addiu	a0,v0,20748
  400eac:	00603025 	move	a2,v1
  400eb0:	0c10134f 	jal	404d3c <ee_printf>
  400eb4:	00000000 	nop
  400eb8:	97c20010 	lhu	v0,16(s8)
  400ebc:	24420001 	addiu	v0,v0,1
  400ec0:	a7c20010 	sh	v0,16(s8)
  400ec4:	97c30010 	lhu	v1,16(s8)
  400ec8:	8f82800c 	lw	v0,-32756(gp)
  400ecc:	0062102b 	sltu	v0,v1,v0
  400ed0:	1440ffeb 	bnez	v0,400e80 <main+0xdd0>
  400ed4:	00000000 	nop
  400ed8:	87c20018 	lh	v0,24(s8)
  400edc:	14400005 	bnez	v0,400ef4 <main+0xe44>
  400ee0:	00000000 	nop
  400ee4:	3c020040 	lui	v0,0x40
  400ee8:	24445128 	addiu	a0,v0,20776
  400eec:	0c10134f 	jal	404d3c <ee_printf>
  400ef0:	00000000 	nop
  400ef4:	87c20018 	lh	v0,24(s8)
  400ef8:	18400005 	blez	v0,400f10 <main+0xe60>
  400efc:	00000000 	nop
  400f00:	3c020040 	lui	v0,0x40
  400f04:	24445174 	addiu	a0,v0,20852
  400f08:	0c10134f 	jal	404d3c <ee_printf>
  400f0c:	00000000 	nop
  400f10:	87c20018 	lh	v0,24(s8)
  400f14:	04410005 	bgez	v0,400f2c <main+0xe7c>
  400f18:	00000000 	nop
  400f1c:	3c020040 	lui	v0,0x40
  400f20:	24445188 	addiu	a0,v0,20872
  400f24:	0c10134f 	jal	404d3c <ee_printf>
  400f28:	00000000 	nop
  400f2c:	27c20038 	addiu	v0,s8,56
  400f30:	24420042 	addiu	v0,v0,66
  400f34:	00402025 	move	a0,v0
  400f38:	0c100b6f 	jal	402dbc <portable_fini>
  400f3c:	00000000 	nop
  400f40:	00000000 	nop
  400f44:	03c0e825 	move	sp,s8
  400f48:	8fbf008c 	lw	ra,140(sp)
  400f4c:	8fbe0088 	lw	s8,136(sp)
  400f50:	8fb00084 	lw	s0,132(sp)
  400f54:	27bd0090 	addiu	sp,sp,144
  400f58:	03e00008 	jr	ra
  400f5c:	00000000 	nop

00400f60 <iterate>:
  400f60:	27bdffd8 	addiu	sp,sp,-40
  400f64:	afbf0024 	sw	ra,36(sp)
  400f68:	afbe0020 	sw	s8,32(sp)
  400f6c:	03a0f025 	move	s8,sp
  400f70:	afc40028 	sw	a0,40(s8)
  400f74:	8fc20028 	lw	v0,40(s8)
  400f78:	afc20014 	sw	v0,20(s8)
  400f7c:	8fc20014 	lw	v0,20(s8)
  400f80:	8c42001c 	lw	v0,28(v0)
  400f84:	afc20018 	sw	v0,24(s8)
  400f88:	8fc20014 	lw	v0,20(s8)
  400f8c:	a4400038 	sh	zero,56(v0)
  400f90:	8fc20014 	lw	v0,20(s8)
  400f94:	a440003a 	sh	zero,58(v0)
  400f98:	8fc20014 	lw	v0,20(s8)
  400f9c:	a440003c 	sh	zero,60(v0)
  400fa0:	8fc20014 	lw	v0,20(s8)
  400fa4:	a440003e 	sh	zero,62(v0)
  400fa8:	afc00010 	sw	zero,16(s8)
  400fac:	10000029 	b	401054 <iterate+0xf4>
  400fb0:	00000000 	nop
  400fb4:	8fc40014 	lw	a0,20(s8)
  400fb8:	24050001 	li	a1,1
  400fbc:	0c100516 	jal	401458 <core_bench_list>
  400fc0:	00000000 	nop
  400fc4:	a7c2001c 	sh	v0,28(s8)
  400fc8:	97c3001c 	lhu	v1,28(s8)
  400fcc:	8fc20014 	lw	v0,20(s8)
  400fd0:	94420038 	lhu	v0,56(v0)
  400fd4:	00602025 	move	a0,v1
  400fd8:	00402825 	move	a1,v0
  400fdc:	0c100e6c 	jal	4039b0 <crcu16>
  400fe0:	00000000 	nop
  400fe4:	00401825 	move	v1,v0
  400fe8:	8fc20014 	lw	v0,20(s8)
  400fec:	a4430038 	sh	v1,56(v0)
  400ff0:	8fc40014 	lw	a0,20(s8)
  400ff4:	2405ffff 	li	a1,-1
  400ff8:	0c100516 	jal	401458 <core_bench_list>
  400ffc:	00000000 	nop
  401000:	a7c2001c 	sh	v0,28(s8)
  401004:	97c3001c 	lhu	v1,28(s8)
  401008:	8fc20014 	lw	v0,20(s8)
  40100c:	94420038 	lhu	v0,56(v0)
  401010:	00602025 	move	a0,v1
  401014:	00402825 	move	a1,v0
  401018:	0c100e6c 	jal	4039b0 <crcu16>
  40101c:	00000000 	nop
  401020:	00401825 	move	v1,v0
  401024:	8fc20014 	lw	v0,20(s8)
  401028:	a4430038 	sh	v1,56(v0)
  40102c:	8fc20010 	lw	v0,16(s8)
  401030:	14400005 	bnez	v0,401048 <iterate+0xe8>
  401034:	00000000 	nop
  401038:	8fc20014 	lw	v0,20(s8)
  40103c:	94430038 	lhu	v1,56(v0)
  401040:	8fc20014 	lw	v0,20(s8)
  401044:	a443003a 	sh	v1,58(v0)
  401048:	8fc20010 	lw	v0,16(s8)
  40104c:	24420001 	addiu	v0,v0,1
  401050:	afc20010 	sw	v0,16(s8)
  401054:	8fc30010 	lw	v1,16(s8)
  401058:	8fc20018 	lw	v0,24(s8)
  40105c:	0062102b 	sltu	v0,v1,v0
  401060:	1440ffd4 	bnez	v0,400fb4 <iterate+0x54>
  401064:	00000000 	nop
  401068:	00001025 	move	v0,zero
  40106c:	03c0e825 	move	sp,s8
  401070:	8fbf0024 	lw	ra,36(sp)
  401074:	8fbe0020 	lw	s8,32(sp)
  401078:	27bd0028 	addiu	sp,sp,40
  40107c:	03e00008 	jr	ra
  401080:	00000000 	nop

00401084 <calc_func>:
  401084:	27bdffd0 	addiu	sp,sp,-48
  401088:	afbf002c 	sw	ra,44(sp)
  40108c:	afbe0028 	sw	s8,40(sp)
  401090:	03a0f025 	move	s8,sp
  401094:	afc40030 	sw	a0,48(s8)
  401098:	afc50034 	sw	a1,52(s8)
  40109c:	8fc20030 	lw	v0,48(s8)
  4010a0:	94420000 	lhu	v0,0(v0)
  4010a4:	a7c2001c 	sh	v0,28(s8)
  4010a8:	87c2001c 	lh	v0,28(s8)
  4010ac:	000211c3 	sra	v0,v0,0x7
  4010b0:	00021400 	sll	v0,v0,0x10
  4010b4:	00021403 	sra	v0,v0,0x10
  4010b8:	304200ff 	andi	v0,v0,0xff
  4010bc:	30420001 	andi	v0,v0,0x1
  4010c0:	a3c2001e 	sb	v0,30(s8)
  4010c4:	93c2001e 	lbu	v0,30(s8)
  4010c8:	10400007 	beqz	v0,4010e8 <calc_func+0x64>
  4010cc:	00000000 	nop
  4010d0:	97c2001c 	lhu	v0,28(s8)
  4010d4:	3042007f 	andi	v0,v0,0x7f
  4010d8:	00021400 	sll	v0,v0,0x10
  4010dc:	00021403 	sra	v0,v0,0x10
  4010e0:	10000071 	b	4012a8 <calc_func+0x224>
  4010e4:	00000000 	nop
  4010e8:	97c2001c 	lhu	v0,28(s8)
  4010ec:	30420007 	andi	v0,v0,0x7
  4010f0:	a7c20020 	sh	v0,32(s8)
  4010f4:	87c2001c 	lh	v0,28(s8)
  4010f8:	000210c3 	sra	v0,v0,0x3
  4010fc:	00021400 	sll	v0,v0,0x10
  401100:	00021403 	sra	v0,v0,0x10
  401104:	3042000f 	andi	v0,v0,0xf
  401108:	a7c2001a 	sh	v0,26(s8)
  40110c:	87c2001a 	lh	v0,26(s8)
  401110:	00021100 	sll	v0,v0,0x4
  401114:	00021c00 	sll	v1,v0,0x10
  401118:	00031c03 	sra	v1,v1,0x10
  40111c:	97c2001a 	lhu	v0,26(s8)
  401120:	00621025 	or	v0,v1,v0
  401124:	a7c2001a 	sh	v0,26(s8)
  401128:	87c20020 	lh	v0,32(s8)
  40112c:	10400006 	beqz	v0,401148 <calc_func+0xc4>
  401130:	00000000 	nop
  401134:	24030001 	li	v1,1
  401138:	10430026 	beq	v0,v1,4011d4 <calc_func+0x150>
  40113c:	00000000 	nop
  401140:	10000039 	b	401228 <calc_func+0x1a4>
  401144:	00000000 	nop
  401148:	87c2001a 	lh	v0,26(s8)
  40114c:	28420022 	slti	v0,v0,34
  401150:	10400003 	beqz	v0,401160 <calc_func+0xdc>
  401154:	00000000 	nop
  401158:	24020022 	li	v0,34
  40115c:	a7c2001a 	sh	v0,26(s8)
  401160:	8fc20034 	lw	v0,52(s8)
  401164:	8c440018 	lw	a0,24(v0)
  401168:	8fc20034 	lw	v0,52(s8)
  40116c:	8c450014 	lw	a1,20(v0)
  401170:	8fc20034 	lw	v0,52(s8)
  401174:	84420000 	lh	v0,0(v0)
  401178:	00403025 	move	a2,v0
  40117c:	8fc20034 	lw	v0,52(s8)
  401180:	84420002 	lh	v0,2(v0)
  401184:	00403825 	move	a3,v0
  401188:	87c2001a 	lh	v0,26(s8)
  40118c:	8fc30034 	lw	v1,52(s8)
  401190:	94630038 	lhu	v1,56(v1)
  401194:	afa20010 	sw	v0,16(sp)
  401198:	afa30014 	sw	v1,20(sp)
  40119c:	0c100b77 	jal	402ddc <core_bench_state>
  4011a0:	00000000 	nop
  4011a4:	a7c20018 	sh	v0,24(s8)
  4011a8:	8fc20034 	lw	v0,52(s8)
  4011ac:	9442003e 	lhu	v0,62(v0)
  4011b0:	14400006 	bnez	v0,4011cc <calc_func+0x148>
  4011b4:	00000000 	nop
  4011b8:	97c30018 	lhu	v1,24(s8)
  4011bc:	8fc20034 	lw	v0,52(s8)
  4011c0:	a443003e 	sh	v1,62(v0)
  4011c4:	1000001b 	b	401234 <calc_func+0x1b0>
  4011c8:	00000000 	nop
  4011cc:	10000019 	b	401234 <calc_func+0x1b0>
  4011d0:	00000000 	nop
  4011d4:	8fc20034 	lw	v0,52(s8)
  4011d8:	24440028 	addiu	a0,v0,40
  4011dc:	87c3001a 	lh	v1,26(s8)
  4011e0:	8fc20034 	lw	v0,52(s8)
  4011e4:	94420038 	lhu	v0,56(v0)
  4011e8:	00602825 	move	a1,v1
  4011ec:	00403025 	move	a2,v0
  4011f0:	0c100804 	jal	402010 <core_bench_matrix>
  4011f4:	00000000 	nop
  4011f8:	a7c20018 	sh	v0,24(s8)
  4011fc:	8fc20034 	lw	v0,52(s8)
  401200:	9442003c 	lhu	v0,60(v0)
  401204:	14400006 	bnez	v0,401220 <calc_func+0x19c>
  401208:	00000000 	nop
  40120c:	97c30018 	lhu	v1,24(s8)
  401210:	8fc20034 	lw	v0,52(s8)
  401214:	a443003c 	sh	v1,60(v0)
  401218:	10000006 	b	401234 <calc_func+0x1b0>
  40121c:	00000000 	nop
  401220:	10000004 	b	401234 <calc_func+0x1b0>
  401224:	00000000 	nop
  401228:	97c2001c 	lhu	v0,28(s8)
  40122c:	a7c20018 	sh	v0,24(s8)
  401230:	00000000 	nop
  401234:	97c20018 	lhu	v0,24(s8)
  401238:	00401825 	move	v1,v0
  40123c:	8fc20034 	lw	v0,52(s8)
  401240:	94420038 	lhu	v0,56(v0)
  401244:	00602025 	move	a0,v1
  401248:	00402825 	move	a1,v0
  40124c:	0c100e6c 	jal	4039b0 <crcu16>
  401250:	00000000 	nop
  401254:	00401825 	move	v1,v0
  401258:	8fc20034 	lw	v0,52(s8)
  40125c:	a4430038 	sh	v1,56(v0)
  401260:	97c20018 	lhu	v0,24(s8)
  401264:	3042007f 	andi	v0,v0,0x7f
  401268:	a7c20018 	sh	v0,24(s8)
  40126c:	97c3001c 	lhu	v1,28(s8)
  401270:	2402ff00 	li	v0,-256
  401274:	00621024 	and	v0,v1,v0
  401278:	00021400 	sll	v0,v0,0x10
  40127c:	00021403 	sra	v0,v0,0x10
  401280:	34420080 	ori	v0,v0,0x80
  401284:	00021c00 	sll	v1,v0,0x10
  401288:	00031c03 	sra	v1,v1,0x10
  40128c:	97c20018 	lhu	v0,24(s8)
  401290:	00621025 	or	v0,v1,v0
  401294:	00021c00 	sll	v1,v0,0x10
  401298:	00031c03 	sra	v1,v1,0x10
  40129c:	8fc20030 	lw	v0,48(s8)
  4012a0:	a4430000 	sh	v1,0(v0)
  4012a4:	87c20018 	lh	v0,24(s8)
  4012a8:	03c0e825 	move	sp,s8
  4012ac:	8fbf002c 	lw	ra,44(sp)
  4012b0:	8fbe0028 	lw	s8,40(sp)
  4012b4:	27bd0030 	addiu	sp,sp,48
  4012b8:	03e00008 	jr	ra
  4012bc:	00000000 	nop

004012c0 <cmp_complex>:
  4012c0:	27bdffe0 	addiu	sp,sp,-32
  4012c4:	afbf001c 	sw	ra,28(sp)
  4012c8:	afbe0018 	sw	s8,24(sp)
  4012cc:	03a0f025 	move	s8,sp
  4012d0:	afc40020 	sw	a0,32(s8)
  4012d4:	afc50024 	sw	a1,36(s8)
  4012d8:	afc60028 	sw	a2,40(s8)
  4012dc:	8fc20020 	lw	v0,32(s8)
  4012e0:	00402025 	move	a0,v0
  4012e4:	8fc50028 	lw	a1,40(s8)
  4012e8:	0c100421 	jal	401084 <calc_func>
  4012ec:	00000000 	nop
  4012f0:	a7c20010 	sh	v0,16(s8)
  4012f4:	8fc20024 	lw	v0,36(s8)
  4012f8:	00402025 	move	a0,v0
  4012fc:	8fc50028 	lw	a1,40(s8)
  401300:	0c100421 	jal	401084 <calc_func>
  401304:	00000000 	nop
  401308:	a7c20012 	sh	v0,18(s8)
  40130c:	87c30010 	lh	v1,16(s8)
  401310:	87c20012 	lh	v0,18(s8)
  401314:	00621023 	subu	v0,v1,v0
  401318:	03c0e825 	move	sp,s8
  40131c:	8fbf001c 	lw	ra,28(sp)
  401320:	8fbe0018 	lw	s8,24(sp)
  401324:	27bd0020 	addiu	sp,sp,32
  401328:	03e00008 	jr	ra
  40132c:	00000000 	nop

00401330 <cmp_idx>:
  401330:	27bdfff8 	addiu	sp,sp,-8
  401334:	afbe0004 	sw	s8,4(sp)
  401338:	03a0f025 	move	s8,sp
  40133c:	afc40008 	sw	a0,8(s8)
  401340:	afc5000c 	sw	a1,12(s8)
  401344:	afc60010 	sw	a2,16(s8)
  401348:	8fc20010 	lw	v0,16(s8)
  40134c:	14400025 	bnez	v0,4013e4 <cmp_idx+0xb4>
  401350:	00000000 	nop
  401354:	8fc20008 	lw	v0,8(s8)
  401358:	84430000 	lh	v1,0(v0)
  40135c:	2402ff00 	li	v0,-256
  401360:	00621024 	and	v0,v1,v0
  401364:	00021c00 	sll	v1,v0,0x10
  401368:	00031c03 	sra	v1,v1,0x10
  40136c:	8fc20008 	lw	v0,8(s8)
  401370:	84420000 	lh	v0,0(v0)
  401374:	3042ffff 	andi	v0,v0,0xffff
  401378:	00021202 	srl	v0,v0,0x8
  40137c:	3042ffff 	andi	v0,v0,0xffff
  401380:	00021400 	sll	v0,v0,0x10
  401384:	00021403 	sra	v0,v0,0x10
  401388:	00621025 	or	v0,v1,v0
  40138c:	00021c00 	sll	v1,v0,0x10
  401390:	00031c03 	sra	v1,v1,0x10
  401394:	8fc20008 	lw	v0,8(s8)
  401398:	a4430000 	sh	v1,0(v0)
  40139c:	8fc2000c 	lw	v0,12(s8)
  4013a0:	84430000 	lh	v1,0(v0)
  4013a4:	2402ff00 	li	v0,-256
  4013a8:	00621024 	and	v0,v1,v0
  4013ac:	00021c00 	sll	v1,v0,0x10
  4013b0:	00031c03 	sra	v1,v1,0x10
  4013b4:	8fc2000c 	lw	v0,12(s8)
  4013b8:	84420000 	lh	v0,0(v0)
  4013bc:	3042ffff 	andi	v0,v0,0xffff
  4013c0:	00021202 	srl	v0,v0,0x8
  4013c4:	3042ffff 	andi	v0,v0,0xffff
  4013c8:	00021400 	sll	v0,v0,0x10
  4013cc:	00021403 	sra	v0,v0,0x10
  4013d0:	00621025 	or	v0,v1,v0
  4013d4:	00021c00 	sll	v1,v0,0x10
  4013d8:	00031c03 	sra	v1,v1,0x10
  4013dc:	8fc2000c 	lw	v0,12(s8)
  4013e0:	a4430000 	sh	v1,0(v0)
  4013e4:	8fc20008 	lw	v0,8(s8)
  4013e8:	84420002 	lh	v0,2(v0)
  4013ec:	00401825 	move	v1,v0
  4013f0:	8fc2000c 	lw	v0,12(s8)
  4013f4:	84420002 	lh	v0,2(v0)
  4013f8:	00621023 	subu	v0,v1,v0
  4013fc:	03c0e825 	move	sp,s8
  401400:	8fbe0004 	lw	s8,4(sp)
  401404:	27bd0008 	addiu	sp,sp,8
  401408:	03e00008 	jr	ra
  40140c:	00000000 	nop

00401410 <copy_info>:
  401410:	27bdfff8 	addiu	sp,sp,-8
  401414:	afbe0004 	sw	s8,4(sp)
  401418:	03a0f025 	move	s8,sp
  40141c:	afc40008 	sw	a0,8(s8)
  401420:	afc5000c 	sw	a1,12(s8)
  401424:	8fc2000c 	lw	v0,12(s8)
  401428:	84430000 	lh	v1,0(v0)
  40142c:	8fc20008 	lw	v0,8(s8)
  401430:	a4430000 	sh	v1,0(v0)
  401434:	8fc2000c 	lw	v0,12(s8)
  401438:	84430002 	lh	v1,2(v0)
  40143c:	8fc20008 	lw	v0,8(s8)
  401440:	a4430002 	sh	v1,2(v0)
  401444:	03c0e825 	move	sp,s8
  401448:	8fbe0004 	lw	s8,4(sp)
  40144c:	27bd0008 	addiu	sp,sp,8
  401450:	03e00008 	jr	ra
  401454:	00000000 	nop

00401458 <core_bench_list>:
  401458:	27bdffc8 	addiu	sp,sp,-56
  40145c:	afbf0034 	sw	ra,52(sp)
  401460:	afbe0030 	sw	s8,48(sp)
  401464:	03a0f025 	move	s8,sp
  401468:	afc40038 	sw	a0,56(s8)
  40146c:	00a01025 	move	v0,a1
  401470:	a7c2003c 	sh	v0,60(s8)
  401474:	a7c00010 	sh	zero,16(s8)
  401478:	a7c00012 	sh	zero,18(s8)
  40147c:	a7c00014 	sh	zero,20(s8)
  401480:	8fc20038 	lw	v0,56(s8)
  401484:	8c420024 	lw	v0,36(v0)
  401488:	afc20018 	sw	v0,24(s8)
  40148c:	8fc20038 	lw	v0,56(s8)
  401490:	94420004 	lhu	v0,4(v0)
  401494:	a7c20022 	sh	v0,34(s8)
  401498:	afc0002c 	sw	zero,44(s8)
  40149c:	97c2003c 	lhu	v0,60(s8)
  4014a0:	a7c2002e 	sh	v0,46(s8)
  4014a4:	a7c00020 	sh	zero,32(s8)
  4014a8:	1000005c 	b	40161c <core_bench_list+0x1c4>
  4014ac:	00000000 	nop
  4014b0:	97c20020 	lhu	v0,32(s8)
  4014b4:	304200ff 	andi	v0,v0,0xff
  4014b8:	00021400 	sll	v0,v0,0x10
  4014bc:	00021403 	sra	v0,v0,0x10
  4014c0:	a7c2002c 	sh	v0,44(s8)
  4014c4:	27c2002c 	addiu	v0,s8,44
  4014c8:	8fc40018 	lw	a0,24(s8)
  4014cc:	00402825 	move	a1,v0
  4014d0:	0c100720 	jal	401c80 <core_list_find>
  4014d4:	00000000 	nop
  4014d8:	afc20024 	sw	v0,36(s8)
  4014dc:	8fc40018 	lw	a0,24(s8)
  4014e0:	0c100752 	jal	401d48 <core_list_reverse>
  4014e4:	00000000 	nop
  4014e8:	afc20018 	sw	v0,24(s8)
  4014ec:	8fc20024 	lw	v0,36(s8)
  4014f0:	14400013 	bnez	v0,401540 <core_bench_list+0xe8>
  4014f4:	00000000 	nop
  4014f8:	97c20014 	lhu	v0,20(s8)
  4014fc:	24420001 	addiu	v0,v0,1
  401500:	a7c20014 	sh	v0,20(s8)
  401504:	8fc20018 	lw	v0,24(s8)
  401508:	8c420000 	lw	v0,0(v0)
  40150c:	8c420004 	lw	v0,4(v0)
  401510:	84420000 	lh	v0,0(v0)
  401514:	00021203 	sra	v0,v0,0x8
  401518:	00021400 	sll	v0,v0,0x10
  40151c:	00021403 	sra	v0,v0,0x10
  401520:	3042ffff 	andi	v0,v0,0xffff
  401524:	30420001 	andi	v0,v0,0x1
  401528:	3043ffff 	andi	v1,v0,0xffff
  40152c:	97c20010 	lhu	v0,16(s8)
  401530:	00621021 	addu	v0,v1,v0
  401534:	a7c20010 	sh	v0,16(s8)
  401538:	10000029 	b	4015e0 <core_bench_list+0x188>
  40153c:	00000000 	nop
  401540:	97c20012 	lhu	v0,18(s8)
  401544:	24420001 	addiu	v0,v0,1
  401548:	a7c20012 	sh	v0,18(s8)
  40154c:	8fc20024 	lw	v0,36(s8)
  401550:	8c420004 	lw	v0,4(v0)
  401554:	84420000 	lh	v0,0(v0)
  401558:	3042ffff 	andi	v0,v0,0xffff
  40155c:	30420001 	andi	v0,v0,0x1
  401560:	1040000d 	beqz	v0,401598 <core_bench_list+0x140>
  401564:	00000000 	nop
  401568:	8fc20024 	lw	v0,36(s8)
  40156c:	8c420004 	lw	v0,4(v0)
  401570:	84420000 	lh	v0,0(v0)
  401574:	00021243 	sra	v0,v0,0x9
  401578:	00021400 	sll	v0,v0,0x10
  40157c:	00021403 	sra	v0,v0,0x10
  401580:	3042ffff 	andi	v0,v0,0xffff
  401584:	30420001 	andi	v0,v0,0x1
  401588:	3043ffff 	andi	v1,v0,0xffff
  40158c:	97c20010 	lhu	v0,16(s8)
  401590:	00621021 	addu	v0,v1,v0
  401594:	a7c20010 	sh	v0,16(s8)
  401598:	8fc20024 	lw	v0,36(s8)
  40159c:	8c420000 	lw	v0,0(v0)
  4015a0:	1040000f 	beqz	v0,4015e0 <core_bench_list+0x188>
  4015a4:	00000000 	nop
  4015a8:	8fc20024 	lw	v0,36(s8)
  4015ac:	8c420000 	lw	v0,0(v0)
  4015b0:	afc2001c 	sw	v0,28(s8)
  4015b4:	8fc2001c 	lw	v0,28(s8)
  4015b8:	8c430000 	lw	v1,0(v0)
  4015bc:	8fc20024 	lw	v0,36(s8)
  4015c0:	ac430000 	sw	v1,0(v0)
  4015c4:	8fc20018 	lw	v0,24(s8)
  4015c8:	8c430000 	lw	v1,0(v0)
  4015cc:	8fc2001c 	lw	v0,28(s8)
  4015d0:	ac430000 	sw	v1,0(v0)
  4015d4:	8fc20018 	lw	v0,24(s8)
  4015d8:	8fc3001c 	lw	v1,28(s8)
  4015dc:	ac430000 	sw	v1,0(v0)
  4015e0:	87c2002e 	lh	v0,46(s8)
  4015e4:	04400008 	bltz	v0,401608 <core_bench_list+0x1b0>
  4015e8:	00000000 	nop
  4015ec:	87c2002e 	lh	v0,46(s8)
  4015f0:	3042ffff 	andi	v0,v0,0xffff
  4015f4:	24420001 	addiu	v0,v0,1
  4015f8:	3042ffff 	andi	v0,v0,0xffff
  4015fc:	00021400 	sll	v0,v0,0x10
  401600:	00021403 	sra	v0,v0,0x10
  401604:	a7c2002e 	sh	v0,46(s8)
  401608:	87c20020 	lh	v0,32(s8)
  40160c:	3042ffff 	andi	v0,v0,0xffff
  401610:	24420001 	addiu	v0,v0,1
  401614:	3042ffff 	andi	v0,v0,0xffff
  401618:	a7c20020 	sh	v0,32(s8)
  40161c:	87c30020 	lh	v1,32(s8)
  401620:	87c20022 	lh	v0,34(s8)
  401624:	0062102a 	slt	v0,v1,v0
  401628:	1440ffa1 	bnez	v0,4014b0 <core_bench_list+0x58>
  40162c:	00000000 	nop
  401630:	97c20012 	lhu	v0,18(s8)
  401634:	00021080 	sll	v0,v0,0x2
  401638:	3043ffff 	andi	v1,v0,0xffff
  40163c:	97c20014 	lhu	v0,20(s8)
  401640:	00621023 	subu	v0,v1,v0
  401644:	3043ffff 	andi	v1,v0,0xffff
  401648:	97c20010 	lhu	v0,16(s8)
  40164c:	00621021 	addu	v0,v1,v0
  401650:	a7c20010 	sh	v0,16(s8)
  401654:	87c2003c 	lh	v0,60(s8)
  401658:	18400008 	blez	v0,40167c <core_bench_list+0x224>
  40165c:	00000000 	nop
  401660:	8fc40018 	lw	a0,24(s8)
  401664:	3c020040 	lui	v0,0x40
  401668:	244512c0 	addiu	a1,v0,4800
  40166c:	8fc60038 	lw	a2,56(s8)
  401670:	0c10076c 	jal	401db0 <core_list_mergesort>
  401674:	00000000 	nop
  401678:	afc20018 	sw	v0,24(s8)
  40167c:	8fc20018 	lw	v0,24(s8)
  401680:	8c420000 	lw	v0,0(v0)
  401684:	00402025 	move	a0,v0
  401688:	0c1006e6 	jal	401b98 <core_list_remove>
  40168c:	00000000 	nop
  401690:	afc20028 	sw	v0,40(s8)
  401694:	27c2002c 	addiu	v0,s8,44
  401698:	8fc40018 	lw	a0,24(s8)
  40169c:	00402825 	move	a1,v0
  4016a0:	0c100720 	jal	401c80 <core_list_find>
  4016a4:	00000000 	nop
  4016a8:	afc2001c 	sw	v0,28(s8)
  4016ac:	8fc2001c 	lw	v0,28(s8)
  4016b0:	14400004 	bnez	v0,4016c4 <core_bench_list+0x26c>
  4016b4:	00000000 	nop
  4016b8:	8fc20018 	lw	v0,24(s8)
  4016bc:	8c420000 	lw	v0,0(v0)
  4016c0:	afc2001c 	sw	v0,28(s8)
  4016c4:	1000000e 	b	401700 <core_bench_list+0x2a8>
  4016c8:	00000000 	nop
  4016cc:	8fc20018 	lw	v0,24(s8)
  4016d0:	8c420004 	lw	v0,4(v0)
  4016d4:	84420000 	lh	v0,0(v0)
  4016d8:	00401825 	move	v1,v0
  4016dc:	97c20010 	lhu	v0,16(s8)
  4016e0:	00602025 	move	a0,v1
  4016e4:	00402825 	move	a1,v0
  4016e8:	0c100eb2 	jal	403ac8 <crc16>
  4016ec:	00000000 	nop
  4016f0:	a7c20010 	sh	v0,16(s8)
  4016f4:	8fc2001c 	lw	v0,28(s8)
  4016f8:	8c420000 	lw	v0,0(v0)
  4016fc:	afc2001c 	sw	v0,28(s8)
  401700:	8fc2001c 	lw	v0,28(s8)
  401704:	1440fff1 	bnez	v0,4016cc <core_bench_list+0x274>
  401708:	00000000 	nop
  40170c:	8fc20018 	lw	v0,24(s8)
  401710:	8c420000 	lw	v0,0(v0)
  401714:	8fc40028 	lw	a0,40(s8)
  401718:	00402825 	move	a1,v0
  40171c:	0c100704 	jal	401c10 <core_list_undo_remove>
  401720:	00000000 	nop
  401724:	afc20028 	sw	v0,40(s8)
  401728:	8fc40018 	lw	a0,24(s8)
  40172c:	3c020040 	lui	v0,0x40
  401730:	24451330 	addiu	a1,v0,4912
  401734:	00003025 	move	a2,zero
  401738:	0c10076c 	jal	401db0 <core_list_mergesort>
  40173c:	00000000 	nop
  401740:	afc20018 	sw	v0,24(s8)
  401744:	8fc20018 	lw	v0,24(s8)
  401748:	8c420000 	lw	v0,0(v0)
  40174c:	afc2001c 	sw	v0,28(s8)
  401750:	1000000e 	b	40178c <core_bench_list+0x334>
  401754:	00000000 	nop
  401758:	8fc20018 	lw	v0,24(s8)
  40175c:	8c420004 	lw	v0,4(v0)
  401760:	84420000 	lh	v0,0(v0)
  401764:	00401825 	move	v1,v0
  401768:	97c20010 	lhu	v0,16(s8)
  40176c:	00602025 	move	a0,v1
  401770:	00402825 	move	a1,v0
  401774:	0c100eb2 	jal	403ac8 <crc16>
  401778:	00000000 	nop
  40177c:	a7c20010 	sh	v0,16(s8)
  401780:	8fc2001c 	lw	v0,28(s8)
  401784:	8c420000 	lw	v0,0(v0)
  401788:	afc2001c 	sw	v0,28(s8)
  40178c:	8fc2001c 	lw	v0,28(s8)
  401790:	1440fff1 	bnez	v0,401758 <core_bench_list+0x300>
  401794:	00000000 	nop
  401798:	97c20010 	lhu	v0,16(s8)
  40179c:	03c0e825 	move	sp,s8
  4017a0:	8fbf0034 	lw	ra,52(sp)
  4017a4:	8fbe0030 	lw	s8,48(sp)
  4017a8:	27bd0038 	addiu	sp,sp,56
  4017ac:	03e00008 	jr	ra
  4017b0:	00000000 	nop

004017b4 <core_list_init>:
  4017b4:	27bdffb0 	addiu	sp,sp,-80
  4017b8:	afbf004c 	sw	ra,76(sp)
  4017bc:	afbe0048 	sw	s8,72(sp)
  4017c0:	03a0f025 	move	s8,sp
  4017c4:	afc40050 	sw	a0,80(s8)
  4017c8:	afc50054 	sw	a1,84(s8)
  4017cc:	00c01025 	move	v0,a2
  4017d0:	a7c20058 	sh	v0,88(s8)
  4017d4:	24020014 	li	v0,20
  4017d8:	afc20020 	sw	v0,32(s8)
  4017dc:	8fc30050 	lw	v1,80(s8)
  4017e0:	8fc20020 	lw	v0,32(s8)
  4017e4:	0062001b 	divu	zero,v1,v0
  4017e8:	004001f4 	teq	v0,zero,0x7
  4017ec:	00001010 	mfhi	v0
  4017f0:	00001012 	mflo	v0
  4017f4:	2442fffe 	addiu	v0,v0,-2
  4017f8:	afc20024 	sw	v0,36(s8)
  4017fc:	8fc30054 	lw	v1,84(s8)
  401800:	8fc20024 	lw	v0,36(s8)
  401804:	000210c0 	sll	v0,v0,0x3
  401808:	00621021 	addu	v0,v1,v0
  40180c:	afc20028 	sw	v0,40(s8)
  401810:	8fc20028 	lw	v0,40(s8)
  401814:	afc2003c 	sw	v0,60(s8)
  401818:	8fc3003c 	lw	v1,60(s8)
  40181c:	8fc20024 	lw	v0,36(s8)
  401820:	00021080 	sll	v0,v0,0x2
  401824:	00621021 	addu	v0,v1,v0
  401828:	afc2002c 	sw	v0,44(s8)
  40182c:	8fc20054 	lw	v0,84(s8)
  401830:	afc20030 	sw	v0,48(s8)
  401834:	8fc20030 	lw	v0,48(s8)
  401838:	ac400000 	sw	zero,0(v0)
  40183c:	8fc3003c 	lw	v1,60(s8)
  401840:	8fc20030 	lw	v0,48(s8)
  401844:	ac430004 	sw	v1,4(v0)
  401848:	8fc20030 	lw	v0,48(s8)
  40184c:	8c420004 	lw	v0,4(v0)
  401850:	a4400002 	sh	zero,2(v0)
  401854:	8fc20030 	lw	v0,48(s8)
  401858:	8c420004 	lw	v0,4(v0)
  40185c:	24038080 	li	v1,-32640
  401860:	a4430000 	sh	v1,0(v0)
  401864:	8fc20054 	lw	v0,84(s8)
  401868:	24420008 	addiu	v0,v0,8
  40186c:	afc20054 	sw	v0,84(s8)
  401870:	8fc2003c 	lw	v0,60(s8)
  401874:	24420004 	addiu	v0,v0,4
  401878:	afc2003c 	sw	v0,60(s8)
  40187c:	24027fff 	li	v0,32767
  401880:	a7c20042 	sh	v0,66(s8)
  401884:	2402ffff 	li	v0,-1
  401888:	a7c20040 	sh	v0,64(s8)
  40188c:	27c50040 	addiu	a1,s8,64
  401890:	27c60054 	addiu	a2,s8,84
  401894:	27c3003c 	addiu	v1,s8,60
  401898:	8fc20028 	lw	v0,40(s8)
  40189c:	afa20010 	sw	v0,16(sp)
  4018a0:	8fc2002c 	lw	v0,44(s8)
  4018a4:	afa20014 	sw	v0,20(sp)
  4018a8:	8fc40030 	lw	a0,48(s8)
  4018ac:	00603825 	move	a3,v1
  4018b0:	0c1006a5 	jal	401a94 <core_list_insert_new>
  4018b4:	00000000 	nop
  4018b8:	afc00018 	sw	zero,24(s8)
  4018bc:	10000028 	b	401960 <core_list_init+0x1ac>
  4018c0:	00000000 	nop
  4018c4:	8fc20018 	lw	v0,24(s8)
  4018c8:	3043ffff 	andi	v1,v0,0xffff
  4018cc:	97c20058 	lhu	v0,88(s8)
  4018d0:	00621026 	xor	v0,v1,v0
  4018d4:	3042ffff 	andi	v0,v0,0xffff
  4018d8:	3042000f 	andi	v0,v0,0xf
  4018dc:	a7c20034 	sh	v0,52(s8)
  4018e0:	97c20034 	lhu	v0,52(s8)
  4018e4:	000210c0 	sll	v0,v0,0x3
  4018e8:	3043ffff 	andi	v1,v0,0xffff
  4018ec:	8fc20018 	lw	v0,24(s8)
  4018f0:	3042ffff 	andi	v0,v0,0xffff
  4018f4:	30420007 	andi	v0,v0,0x7
  4018f8:	3042ffff 	andi	v0,v0,0xffff
  4018fc:	00621025 	or	v0,v1,v0
  401900:	a7c20036 	sh	v0,54(s8)
  401904:	97c20036 	lhu	v0,54(s8)
  401908:	00021200 	sll	v0,v0,0x8
  40190c:	00021c00 	sll	v1,v0,0x10
  401910:	00031c03 	sra	v1,v1,0x10
  401914:	87c20036 	lh	v0,54(s8)
  401918:	00621025 	or	v0,v1,v0
  40191c:	00021400 	sll	v0,v0,0x10
  401920:	00021403 	sra	v0,v0,0x10
  401924:	a7c20040 	sh	v0,64(s8)
  401928:	27c50040 	addiu	a1,s8,64
  40192c:	27c60054 	addiu	a2,s8,84
  401930:	27c3003c 	addiu	v1,s8,60
  401934:	8fc20028 	lw	v0,40(s8)
  401938:	afa20010 	sw	v0,16(sp)
  40193c:	8fc2002c 	lw	v0,44(s8)
  401940:	afa20014 	sw	v0,20(sp)
  401944:	8fc40030 	lw	a0,48(s8)
  401948:	00603825 	move	a3,v1
  40194c:	0c1006a5 	jal	401a94 <core_list_insert_new>
  401950:	00000000 	nop
  401954:	8fc20018 	lw	v0,24(s8)
  401958:	24420001 	addiu	v0,v0,1
  40195c:	afc20018 	sw	v0,24(s8)
  401960:	8fc30018 	lw	v1,24(s8)
  401964:	8fc20024 	lw	v0,36(s8)
  401968:	0062102b 	sltu	v0,v1,v0
  40196c:	1440ffd5 	bnez	v0,4018c4 <core_list_init+0x110>
  401970:	00000000 	nop
  401974:	8fc20030 	lw	v0,48(s8)
  401978:	8c420000 	lw	v0,0(v0)
  40197c:	afc2001c 	sw	v0,28(s8)
  401980:	24020001 	li	v0,1
  401984:	afc20018 	sw	v0,24(s8)
  401988:	10000030 	b	401a4c <core_list_init+0x298>
  40198c:	00000000 	nop
  401990:	8fc30024 	lw	v1,36(s8)
  401994:	3c02cccc 	lui	v0,0xcccc
  401998:	3442cccd 	ori	v0,v0,0xcccd
  40199c:	00620019 	multu	v1,v0
  4019a0:	00001010 	mfhi	v0
  4019a4:	00021882 	srl	v1,v0,0x2
  4019a8:	8fc20018 	lw	v0,24(s8)
  4019ac:	0043102b 	sltu	v0,v0,v1
  4019b0:	1040000b 	beqz	v0,4019e0 <core_list_init+0x22c>
  4019b4:	00000000 	nop
  4019b8:	8fc2001c 	lw	v0,28(s8)
  4019bc:	8c430004 	lw	v1,4(v0)
  4019c0:	8fc20018 	lw	v0,24(s8)
  4019c4:	24440001 	addiu	a0,v0,1
  4019c8:	afc40018 	sw	a0,24(s8)
  4019cc:	00021400 	sll	v0,v0,0x10
  4019d0:	00021403 	sra	v0,v0,0x10
  4019d4:	a4620002 	sh	v0,2(v1)
  4019d8:	10000019 	b	401a40 <core_list_init+0x28c>
  4019dc:	00000000 	nop
  4019e0:	8fc20018 	lw	v0,24(s8)
  4019e4:	24430001 	addiu	v1,v0,1
  4019e8:	afc30018 	sw	v1,24(s8)
  4019ec:	3043ffff 	andi	v1,v0,0xffff
  4019f0:	97c20058 	lhu	v0,88(s8)
  4019f4:	00621026 	xor	v0,v1,v0
  4019f8:	a7c20038 	sh	v0,56(s8)
  4019fc:	8fc2001c 	lw	v0,28(s8)
  401a00:	8c420004 	lw	v0,4(v0)
  401a04:	8fc30018 	lw	v1,24(s8)
  401a08:	3063ffff 	andi	v1,v1,0xffff
  401a0c:	30630007 	andi	v1,v1,0x7
  401a10:	3063ffff 	andi	v1,v1,0xffff
  401a14:	00031a00 	sll	v1,v1,0x8
  401a18:	3064ffff 	andi	a0,v1,0xffff
  401a1c:	97c30038 	lhu	v1,56(s8)
  401a20:	00831825 	or	v1,a0,v1
  401a24:	3063ffff 	andi	v1,v1,0xffff
  401a28:	00031c00 	sll	v1,v1,0x10
  401a2c:	00031c03 	sra	v1,v1,0x10
  401a30:	30633fff 	andi	v1,v1,0x3fff
  401a34:	00031c00 	sll	v1,v1,0x10
  401a38:	00031c03 	sra	v1,v1,0x10
  401a3c:	a4430002 	sh	v1,2(v0)
  401a40:	8fc2001c 	lw	v0,28(s8)
  401a44:	8c420000 	lw	v0,0(v0)
  401a48:	afc2001c 	sw	v0,28(s8)
  401a4c:	8fc2001c 	lw	v0,28(s8)
  401a50:	8c420000 	lw	v0,0(v0)
  401a54:	1440ffce 	bnez	v0,401990 <core_list_init+0x1dc>
  401a58:	00000000 	nop
  401a5c:	8fc40030 	lw	a0,48(s8)
  401a60:	3c020040 	lui	v0,0x40
  401a64:	24451330 	addiu	a1,v0,4912
  401a68:	00003025 	move	a2,zero
  401a6c:	0c10076c 	jal	401db0 <core_list_mergesort>
  401a70:	00000000 	nop
  401a74:	afc20030 	sw	v0,48(s8)
  401a78:	8fc20030 	lw	v0,48(s8)
  401a7c:	03c0e825 	move	sp,s8
  401a80:	8fbf004c 	lw	ra,76(sp)
  401a84:	8fbe0048 	lw	s8,72(sp)
  401a88:	27bd0050 	addiu	sp,sp,80
  401a8c:	03e00008 	jr	ra
  401a90:	00000000 	nop

00401a94 <core_list_insert_new>:
  401a94:	27bdffe0 	addiu	sp,sp,-32
  401a98:	afbf001c 	sw	ra,28(sp)
  401a9c:	afbe0018 	sw	s8,24(sp)
  401aa0:	03a0f025 	move	s8,sp
  401aa4:	afc40020 	sw	a0,32(s8)
  401aa8:	afc50024 	sw	a1,36(s8)
  401aac:	afc60028 	sw	a2,40(s8)
  401ab0:	afc7002c 	sw	a3,44(s8)
  401ab4:	8fc20028 	lw	v0,40(s8)
  401ab8:	8c420000 	lw	v0,0(v0)
  401abc:	24430008 	addiu	v1,v0,8
  401ac0:	8fc20030 	lw	v0,48(s8)
  401ac4:	0062102b 	sltu	v0,v1,v0
  401ac8:	14400004 	bnez	v0,401adc <core_list_insert_new+0x48>
  401acc:	00000000 	nop
  401ad0:	00001025 	move	v0,zero
  401ad4:	1000002a 	b	401b80 <core_list_insert_new+0xec>
  401ad8:	00000000 	nop
  401adc:	8fc2002c 	lw	v0,44(s8)
  401ae0:	8c420000 	lw	v0,0(v0)
  401ae4:	24430004 	addiu	v1,v0,4
  401ae8:	8fc20034 	lw	v0,52(s8)
  401aec:	0062102b 	sltu	v0,v1,v0
  401af0:	14400004 	bnez	v0,401b04 <core_list_insert_new+0x70>
  401af4:	00000000 	nop
  401af8:	00001025 	move	v0,zero
  401afc:	10000020 	b	401b80 <core_list_insert_new+0xec>
  401b00:	00000000 	nop
  401b04:	8fc20028 	lw	v0,40(s8)
  401b08:	8c420000 	lw	v0,0(v0)
  401b0c:	afc20010 	sw	v0,16(s8)
  401b10:	8fc20028 	lw	v0,40(s8)
  401b14:	8c420000 	lw	v0,0(v0)
  401b18:	24430008 	addiu	v1,v0,8
  401b1c:	8fc20028 	lw	v0,40(s8)
  401b20:	ac430000 	sw	v1,0(v0)
  401b24:	8fc20020 	lw	v0,32(s8)
  401b28:	8c430000 	lw	v1,0(v0)
  401b2c:	8fc20010 	lw	v0,16(s8)
  401b30:	ac430000 	sw	v1,0(v0)
  401b34:	8fc20020 	lw	v0,32(s8)
  401b38:	8fc30010 	lw	v1,16(s8)
  401b3c:	ac430000 	sw	v1,0(v0)
  401b40:	8fc2002c 	lw	v0,44(s8)
  401b44:	8c430000 	lw	v1,0(v0)
  401b48:	8fc20010 	lw	v0,16(s8)
  401b4c:	ac430004 	sw	v1,4(v0)
  401b50:	8fc2002c 	lw	v0,44(s8)
  401b54:	8c420000 	lw	v0,0(v0)
  401b58:	24430004 	addiu	v1,v0,4
  401b5c:	8fc2002c 	lw	v0,44(s8)
  401b60:	ac430000 	sw	v1,0(v0)
  401b64:	8fc20010 	lw	v0,16(s8)
  401b68:	8c420004 	lw	v0,4(v0)
  401b6c:	00402025 	move	a0,v0
  401b70:	8fc50024 	lw	a1,36(s8)
  401b74:	0c100504 	jal	401410 <copy_info>
  401b78:	00000000 	nop
  401b7c:	8fc20010 	lw	v0,16(s8)
  401b80:	03c0e825 	move	sp,s8
  401b84:	8fbf001c 	lw	ra,28(sp)
  401b88:	8fbe0018 	lw	s8,24(sp)
  401b8c:	27bd0020 	addiu	sp,sp,32
  401b90:	03e00008 	jr	ra
  401b94:	00000000 	nop

00401b98 <core_list_remove>:
  401b98:	27bdfff0 	addiu	sp,sp,-16
  401b9c:	afbe000c 	sw	s8,12(sp)
  401ba0:	03a0f025 	move	s8,sp
  401ba4:	afc40010 	sw	a0,16(s8)
  401ba8:	8fc20010 	lw	v0,16(s8)
  401bac:	8c420000 	lw	v0,0(v0)
  401bb0:	afc20000 	sw	v0,0(s8)
  401bb4:	8fc20010 	lw	v0,16(s8)
  401bb8:	8c420004 	lw	v0,4(v0)
  401bbc:	afc20004 	sw	v0,4(s8)
  401bc0:	8fc20000 	lw	v0,0(s8)
  401bc4:	8c430004 	lw	v1,4(v0)
  401bc8:	8fc20010 	lw	v0,16(s8)
  401bcc:	ac430004 	sw	v1,4(v0)
  401bd0:	8fc20000 	lw	v0,0(s8)
  401bd4:	8fc30004 	lw	v1,4(s8)
  401bd8:	ac430004 	sw	v1,4(v0)
  401bdc:	8fc20010 	lw	v0,16(s8)
  401be0:	8c420000 	lw	v0,0(v0)
  401be4:	8c430000 	lw	v1,0(v0)
  401be8:	8fc20010 	lw	v0,16(s8)
  401bec:	ac430000 	sw	v1,0(v0)
  401bf0:	8fc20000 	lw	v0,0(s8)
  401bf4:	ac400000 	sw	zero,0(v0)
  401bf8:	8fc20000 	lw	v0,0(s8)
  401bfc:	03c0e825 	move	sp,s8
  401c00:	8fbe000c 	lw	s8,12(sp)
  401c04:	27bd0010 	addiu	sp,sp,16
  401c08:	03e00008 	jr	ra
  401c0c:	00000000 	nop

00401c10 <core_list_undo_remove>:
  401c10:	27bdfff0 	addiu	sp,sp,-16
  401c14:	afbe000c 	sw	s8,12(sp)
  401c18:	03a0f025 	move	s8,sp
  401c1c:	afc40010 	sw	a0,16(s8)
  401c20:	afc50014 	sw	a1,20(s8)
  401c24:	8fc20010 	lw	v0,16(s8)
  401c28:	8c420004 	lw	v0,4(v0)
  401c2c:	afc20000 	sw	v0,0(s8)
  401c30:	8fc20014 	lw	v0,20(s8)
  401c34:	8c430004 	lw	v1,4(v0)
  401c38:	8fc20010 	lw	v0,16(s8)
  401c3c:	ac430004 	sw	v1,4(v0)
  401c40:	8fc20014 	lw	v0,20(s8)
  401c44:	8fc30000 	lw	v1,0(s8)
  401c48:	ac430004 	sw	v1,4(v0)
  401c4c:	8fc20014 	lw	v0,20(s8)
  401c50:	8c430000 	lw	v1,0(v0)
  401c54:	8fc20010 	lw	v0,16(s8)
  401c58:	ac430000 	sw	v1,0(v0)
  401c5c:	8fc20014 	lw	v0,20(s8)
  401c60:	8fc30010 	lw	v1,16(s8)
  401c64:	ac430000 	sw	v1,0(v0)
  401c68:	8fc20010 	lw	v0,16(s8)
  401c6c:	03c0e825 	move	sp,s8
  401c70:	8fbe000c 	lw	s8,12(sp)
  401c74:	27bd0010 	addiu	sp,sp,16
  401c78:	03e00008 	jr	ra
  401c7c:	00000000 	nop

00401c80 <core_list_find>:
  401c80:	27bdfff8 	addiu	sp,sp,-8
  401c84:	afbe0004 	sw	s8,4(sp)
  401c88:	03a0f025 	move	s8,sp
  401c8c:	afc40008 	sw	a0,8(s8)
  401c90:	afc5000c 	sw	a1,12(s8)
  401c94:	8fc2000c 	lw	v0,12(s8)
  401c98:	84420002 	lh	v0,2(v0)
  401c9c:	04400013 	bltz	v0,401cec <core_list_find+0x6c>
  401ca0:	00000000 	nop
  401ca4:	10000004 	b	401cb8 <core_list_find+0x38>
  401ca8:	00000000 	nop
  401cac:	8fc20008 	lw	v0,8(s8)
  401cb0:	8c420000 	lw	v0,0(v0)
  401cb4:	afc20008 	sw	v0,8(s8)
  401cb8:	8fc20008 	lw	v0,8(s8)
  401cbc:	10400008 	beqz	v0,401ce0 <core_list_find+0x60>
  401cc0:	00000000 	nop
  401cc4:	8fc20008 	lw	v0,8(s8)
  401cc8:	8c420004 	lw	v0,4(v0)
  401ccc:	84430002 	lh	v1,2(v0)
  401cd0:	8fc2000c 	lw	v0,12(s8)
  401cd4:	84420002 	lh	v0,2(v0)
  401cd8:	1462fff4 	bne	v1,v0,401cac <core_list_find+0x2c>
  401cdc:	00000000 	nop
  401ce0:	8fc20008 	lw	v0,8(s8)
  401ce4:	10000013 	b	401d34 <core_list_find+0xb4>
  401ce8:	00000000 	nop
  401cec:	10000004 	b	401d00 <core_list_find+0x80>
  401cf0:	00000000 	nop
  401cf4:	8fc20008 	lw	v0,8(s8)
  401cf8:	8c420000 	lw	v0,0(v0)
  401cfc:	afc20008 	sw	v0,8(s8)
  401d00:	8fc20008 	lw	v0,8(s8)
  401d04:	1040000a 	beqz	v0,401d30 <core_list_find+0xb0>
  401d08:	00000000 	nop
  401d0c:	8fc20008 	lw	v0,8(s8)
  401d10:	8c420004 	lw	v0,4(v0)
  401d14:	84420000 	lh	v0,0(v0)
  401d18:	3042ffff 	andi	v0,v0,0xffff
  401d1c:	304200ff 	andi	v0,v0,0xff
  401d20:	8fc3000c 	lw	v1,12(s8)
  401d24:	84630000 	lh	v1,0(v1)
  401d28:	1443fff2 	bne	v0,v1,401cf4 <core_list_find+0x74>
  401d2c:	00000000 	nop
  401d30:	8fc20008 	lw	v0,8(s8)
  401d34:	03c0e825 	move	sp,s8
  401d38:	8fbe0004 	lw	s8,4(sp)
  401d3c:	27bd0008 	addiu	sp,sp,8
  401d40:	03e00008 	jr	ra
  401d44:	00000000 	nop

00401d48 <core_list_reverse>:
  401d48:	27bdfff0 	addiu	sp,sp,-16
  401d4c:	afbe000c 	sw	s8,12(sp)
  401d50:	03a0f025 	move	s8,sp
  401d54:	afc40010 	sw	a0,16(s8)
  401d58:	afc00000 	sw	zero,0(s8)
  401d5c:	1000000b 	b	401d8c <core_list_reverse+0x44>
  401d60:	00000000 	nop
  401d64:	8fc20010 	lw	v0,16(s8)
  401d68:	8c420000 	lw	v0,0(v0)
  401d6c:	afc20004 	sw	v0,4(s8)
  401d70:	8fc20010 	lw	v0,16(s8)
  401d74:	8fc30000 	lw	v1,0(s8)
  401d78:	ac430000 	sw	v1,0(v0)
  401d7c:	8fc20010 	lw	v0,16(s8)
  401d80:	afc20000 	sw	v0,0(s8)
  401d84:	8fc20004 	lw	v0,4(s8)
  401d88:	afc20010 	sw	v0,16(s8)
  401d8c:	8fc20010 	lw	v0,16(s8)
  401d90:	1440fff4 	bnez	v0,401d64 <core_list_reverse+0x1c>
  401d94:	00000000 	nop
  401d98:	8fc20000 	lw	v0,0(s8)
  401d9c:	03c0e825 	move	sp,s8
  401da0:	8fbe000c 	lw	s8,12(sp)
  401da4:	27bd0010 	addiu	sp,sp,16
  401da8:	03e00008 	jr	ra
  401dac:	00000000 	nop

00401db0 <core_list_mergesort>:
  401db0:	27bdffc0 	addiu	sp,sp,-64
  401db4:	afbf003c 	sw	ra,60(sp)
  401db8:	afbe0038 	sw	s8,56(sp)
  401dbc:	03a0f025 	move	s8,sp
  401dc0:	afc40040 	sw	a0,64(s8)
  401dc4:	afc50044 	sw	a1,68(s8)
  401dc8:	afc60048 	sw	a2,72(s8)
  401dcc:	24020001 	li	v0,1
  401dd0:	afc20020 	sw	v0,32(s8)
  401dd4:	8fc20040 	lw	v0,64(s8)
  401dd8:	afc20010 	sw	v0,16(s8)
  401ddc:	afc00040 	sw	zero,64(s8)
  401de0:	afc0001c 	sw	zero,28(s8)
  401de4:	afc00024 	sw	zero,36(s8)
  401de8:	10000072 	b	401fb4 <core_list_mergesort+0x204>
  401dec:	00000000 	nop
  401df0:	8fc20024 	lw	v0,36(s8)
  401df4:	24420001 	addiu	v0,v0,1
  401df8:	afc20024 	sw	v0,36(s8)
  401dfc:	8fc20010 	lw	v0,16(s8)
  401e00:	afc20014 	sw	v0,20(s8)
  401e04:	afc00028 	sw	zero,40(s8)
  401e08:	afc00030 	sw	zero,48(s8)
  401e0c:	1000000f 	b	401e4c <core_list_mergesort+0x9c>
  401e10:	00000000 	nop
  401e14:	8fc20028 	lw	v0,40(s8)
  401e18:	24420001 	addiu	v0,v0,1
  401e1c:	afc20028 	sw	v0,40(s8)
  401e20:	8fc20014 	lw	v0,20(s8)
  401e24:	8c420000 	lw	v0,0(v0)
  401e28:	afc20014 	sw	v0,20(s8)
  401e2c:	8fc20014 	lw	v0,20(s8)
  401e30:	14400003 	bnez	v0,401e40 <core_list_mergesort+0x90>
  401e34:	00000000 	nop
  401e38:	10000009 	b	401e60 <core_list_mergesort+0xb0>
  401e3c:	00000000 	nop
  401e40:	8fc20030 	lw	v0,48(s8)
  401e44:	24420001 	addiu	v0,v0,1
  401e48:	afc20030 	sw	v0,48(s8)
  401e4c:	8fc30030 	lw	v1,48(s8)
  401e50:	8fc20020 	lw	v0,32(s8)
  401e54:	0062102a 	slt	v0,v1,v0
  401e58:	1440ffee 	bnez	v0,401e14 <core_list_mergesort+0x64>
  401e5c:	00000000 	nop
  401e60:	8fc20020 	lw	v0,32(s8)
  401e64:	afc2002c 	sw	v0,44(s8)
  401e68:	10000047 	b	401f88 <core_list_mergesort+0x1d8>
  401e6c:	00000000 	nop
  401e70:	8fc20028 	lw	v0,40(s8)
  401e74:	1440000b 	bnez	v0,401ea4 <core_list_mergesort+0xf4>
  401e78:	00000000 	nop
  401e7c:	8fc20014 	lw	v0,20(s8)
  401e80:	afc20018 	sw	v0,24(s8)
  401e84:	8fc20014 	lw	v0,20(s8)
  401e88:	8c420000 	lw	v0,0(v0)
  401e8c:	afc20014 	sw	v0,20(s8)
  401e90:	8fc2002c 	lw	v0,44(s8)
  401e94:	2442ffff 	addiu	v0,v0,-1
  401e98:	afc2002c 	sw	v0,44(s8)
  401e9c:	1000002e 	b	401f58 <core_list_mergesort+0x1a8>
  401ea0:	00000000 	nop
  401ea4:	8fc2002c 	lw	v0,44(s8)
  401ea8:	10400004 	beqz	v0,401ebc <core_list_mergesort+0x10c>
  401eac:	00000000 	nop
  401eb0:	8fc20014 	lw	v0,20(s8)
  401eb4:	1440000b 	bnez	v0,401ee4 <core_list_mergesort+0x134>
  401eb8:	00000000 	nop
  401ebc:	8fc20010 	lw	v0,16(s8)
  401ec0:	afc20018 	sw	v0,24(s8)
  401ec4:	8fc20010 	lw	v0,16(s8)
  401ec8:	8c420000 	lw	v0,0(v0)
  401ecc:	afc20010 	sw	v0,16(s8)
  401ed0:	8fc20028 	lw	v0,40(s8)
  401ed4:	2442ffff 	addiu	v0,v0,-1
  401ed8:	afc20028 	sw	v0,40(s8)
  401edc:	1000001e 	b	401f58 <core_list_mergesort+0x1a8>
  401ee0:	00000000 	nop
  401ee4:	8fc20010 	lw	v0,16(s8)
  401ee8:	8c440004 	lw	a0,4(v0)
  401eec:	8fc20014 	lw	v0,20(s8)
  401ef0:	8c430004 	lw	v1,4(v0)
  401ef4:	8fc20044 	lw	v0,68(s8)
  401ef8:	00602825 	move	a1,v1
  401efc:	8fc60048 	lw	a2,72(s8)
  401f00:	0040f809 	jalr	v0
  401f04:	00000000 	nop
  401f08:	1c40000b 	bgtz	v0,401f38 <core_list_mergesort+0x188>
  401f0c:	00000000 	nop
  401f10:	8fc20010 	lw	v0,16(s8)
  401f14:	afc20018 	sw	v0,24(s8)
  401f18:	8fc20010 	lw	v0,16(s8)
  401f1c:	8c420000 	lw	v0,0(v0)
  401f20:	afc20010 	sw	v0,16(s8)
  401f24:	8fc20028 	lw	v0,40(s8)
  401f28:	2442ffff 	addiu	v0,v0,-1
  401f2c:	afc20028 	sw	v0,40(s8)
  401f30:	10000009 	b	401f58 <core_list_mergesort+0x1a8>
  401f34:	00000000 	nop
  401f38:	8fc20014 	lw	v0,20(s8)
  401f3c:	afc20018 	sw	v0,24(s8)
  401f40:	8fc20014 	lw	v0,20(s8)
  401f44:	8c420000 	lw	v0,0(v0)
  401f48:	afc20014 	sw	v0,20(s8)
  401f4c:	8fc2002c 	lw	v0,44(s8)
  401f50:	2442ffff 	addiu	v0,v0,-1
  401f54:	afc2002c 	sw	v0,44(s8)
  401f58:	8fc2001c 	lw	v0,28(s8)
  401f5c:	10400006 	beqz	v0,401f78 <core_list_mergesort+0x1c8>
  401f60:	00000000 	nop
  401f64:	8fc2001c 	lw	v0,28(s8)
  401f68:	8fc30018 	lw	v1,24(s8)
  401f6c:	ac430000 	sw	v1,0(v0)
  401f70:	10000003 	b	401f80 <core_list_mergesort+0x1d0>
  401f74:	00000000 	nop
  401f78:	8fc20018 	lw	v0,24(s8)
  401f7c:	afc20040 	sw	v0,64(s8)
  401f80:	8fc20018 	lw	v0,24(s8)
  401f84:	afc2001c 	sw	v0,28(s8)
  401f88:	8fc20028 	lw	v0,40(s8)
  401f8c:	1c40ffb8 	bgtz	v0,401e70 <core_list_mergesort+0xc0>
  401f90:	00000000 	nop
  401f94:	8fc2002c 	lw	v0,44(s8)
  401f98:	18400004 	blez	v0,401fac <core_list_mergesort+0x1fc>
  401f9c:	00000000 	nop
  401fa0:	8fc20014 	lw	v0,20(s8)
  401fa4:	1440ffb2 	bnez	v0,401e70 <core_list_mergesort+0xc0>
  401fa8:	00000000 	nop
  401fac:	8fc20014 	lw	v0,20(s8)
  401fb0:	afc20010 	sw	v0,16(s8)
  401fb4:	8fc20010 	lw	v0,16(s8)
  401fb8:	1440ff8d 	bnez	v0,401df0 <core_list_mergesort+0x40>
  401fbc:	00000000 	nop
  401fc0:	8fc2001c 	lw	v0,28(s8)
  401fc4:	ac400000 	sw	zero,0(v0)
  401fc8:	8fc20024 	lw	v0,36(s8)
  401fcc:	28420002 	slti	v0,v0,2
  401fd0:	10400004 	beqz	v0,401fe4 <core_list_mergesort+0x234>
  401fd4:	00000000 	nop
  401fd8:	8fc20040 	lw	v0,64(s8)
  401fdc:	10000006 	b	401ff8 <core_list_mergesort+0x248>
  401fe0:	00000000 	nop
  401fe4:	8fc20020 	lw	v0,32(s8)
  401fe8:	00021040 	sll	v0,v0,0x1
  401fec:	afc20020 	sw	v0,32(s8)
  401ff0:	1000ff78 	b	401dd4 <core_list_mergesort+0x24>
  401ff4:	00000000 	nop
  401ff8:	03c0e825 	move	sp,s8
  401ffc:	8fbf003c 	lw	ra,60(sp)
  402000:	8fbe0038 	lw	s8,56(sp)
  402004:	27bd0040 	addiu	sp,sp,64
  402008:	03e00008 	jr	ra
  40200c:	00000000 	nop

00402010 <core_bench_matrix>:
  402010:	27bdffc8 	addiu	sp,sp,-56
  402014:	afbf0034 	sw	ra,52(sp)
  402018:	afbe0030 	sw	s8,48(sp)
  40201c:	03a0f025 	move	s8,sp
  402020:	afc40038 	sw	a0,56(s8)
  402024:	00a01825 	move	v1,a1
  402028:	00c01025 	move	v0,a2
  40202c:	a7c3003c 	sh	v1,60(s8)
  402030:	a7c20040 	sh	v0,64(s8)
  402034:	8fc20038 	lw	v0,56(s8)
  402038:	8c420000 	lw	v0,0(v0)
  40203c:	afc20018 	sw	v0,24(s8)
  402040:	8fc20038 	lw	v0,56(s8)
  402044:	8c42000c 	lw	v0,12(v0)
  402048:	afc2001c 	sw	v0,28(s8)
  40204c:	8fc20038 	lw	v0,56(s8)
  402050:	8c420004 	lw	v0,4(v0)
  402054:	afc20020 	sw	v0,32(s8)
  402058:	8fc20038 	lw	v0,56(s8)
  40205c:	8c420008 	lw	v0,8(v0)
  402060:	afc20024 	sw	v0,36(s8)
  402064:	97c2003c 	lhu	v0,60(s8)
  402068:	a7c20028 	sh	v0,40(s8)
  40206c:	87c20028 	lh	v0,40(s8)
  402070:	afa20010 	sw	v0,16(sp)
  402074:	8fc40018 	lw	a0,24(s8)
  402078:	8fc5001c 	lw	a1,28(s8)
  40207c:	8fc60020 	lw	a2,32(s8)
  402080:	8fc70024 	lw	a3,36(s8)
  402084:	0c100831 	jal	4020c4 <matrix_test>
  402088:	00000000 	nop
  40208c:	00401825 	move	v1,v0
  402090:	97c20040 	lhu	v0,64(s8)
  402094:	00602025 	move	a0,v1
  402098:	00402825 	move	a1,v0
  40209c:	0c100eb2 	jal	403ac8 <crc16>
  4020a0:	00000000 	nop
  4020a4:	a7c20040 	sh	v0,64(s8)
  4020a8:	97c20040 	lhu	v0,64(s8)
  4020ac:	03c0e825 	move	sp,s8
  4020b0:	8fbf0034 	lw	ra,52(sp)
  4020b4:	8fbe0030 	lw	s8,48(sp)
  4020b8:	27bd0038 	addiu	sp,sp,56
  4020bc:	03e00008 	jr	ra
  4020c0:	00000000 	nop

004020c4 <matrix_test>:
  4020c4:	27bdffd8 	addiu	sp,sp,-40
  4020c8:	afbf0024 	sw	ra,36(sp)
  4020cc:	afbe0020 	sw	s8,32(sp)
  4020d0:	03a0f025 	move	s8,sp
  4020d4:	afc40028 	sw	a0,40(s8)
  4020d8:	afc5002c 	sw	a1,44(s8)
  4020dc:	afc60030 	sw	a2,48(s8)
  4020e0:	afc70034 	sw	a3,52(s8)
  4020e4:	8fc20038 	lw	v0,56(s8)
  4020e8:	a7c20018 	sh	v0,24(s8)
  4020ec:	a7c00010 	sh	zero,16(s8)
  4020f0:	97c30018 	lhu	v1,24(s8)
  4020f4:	2402f000 	li	v0,-4096
  4020f8:	00621025 	or	v0,v1,v0
  4020fc:	a7c20012 	sh	v0,18(s8)
  402100:	87c20018 	lh	v0,24(s8)
  402104:	8fc40028 	lw	a0,40(s8)
  402108:	8fc50030 	lw	a1,48(s8)
  40210c:	00403025 	move	a2,v0
  402110:	0c1009c8 	jal	402720 <matrix_add_const>
  402114:	00000000 	nop
  402118:	87c20018 	lh	v0,24(s8)
  40211c:	8fc40028 	lw	a0,40(s8)
  402120:	8fc5002c 	lw	a1,44(s8)
  402124:	8fc60030 	lw	a2,48(s8)
  402128:	00403825 	move	a3,v0
  40212c:	0c10098d 	jal	402634 <matrix_mul_const>
  402130:	00000000 	nop
  402134:	87c20012 	lh	v0,18(s8)
  402138:	8fc40028 	lw	a0,40(s8)
  40213c:	8fc5002c 	lw	a1,44(s8)
  402140:	00403025 	move	a2,v0
  402144:	0c100940 	jal	402500 <matrix_sum>
  402148:	00000000 	nop
  40214c:	00401825 	move	v1,v0
  402150:	97c20010 	lhu	v0,16(s8)
  402154:	00602025 	move	a0,v1
  402158:	00402825 	move	a1,v0
  40215c:	0c100eb2 	jal	403ac8 <crc16>
  402160:	00000000 	nop
  402164:	a7c20010 	sh	v0,16(s8)
  402168:	8fc40028 	lw	a0,40(s8)
  40216c:	8fc5002c 	lw	a1,44(s8)
  402170:	8fc60030 	lw	a2,48(s8)
  402174:	8fc70034 	lw	a3,52(s8)
  402178:	0c100a04 	jal	402810 <matrix_mul_vect>
  40217c:	00000000 	nop
  402180:	87c20012 	lh	v0,18(s8)
  402184:	8fc40028 	lw	a0,40(s8)
  402188:	8fc5002c 	lw	a1,44(s8)
  40218c:	00403025 	move	a2,v0
  402190:	0c100940 	jal	402500 <matrix_sum>
  402194:	00000000 	nop
  402198:	00401825 	move	v1,v0
  40219c:	97c20010 	lhu	v0,16(s8)
  4021a0:	00602025 	move	a0,v1
  4021a4:	00402825 	move	a1,v0
  4021a8:	0c100eb2 	jal	403ac8 <crc16>
  4021ac:	00000000 	nop
  4021b0:	a7c20010 	sh	v0,16(s8)
  4021b4:	8fc40028 	lw	a0,40(s8)
  4021b8:	8fc5002c 	lw	a1,44(s8)
  4021bc:	8fc60030 	lw	a2,48(s8)
  4021c0:	8fc70034 	lw	a3,52(s8)
  4021c4:	0c100a48 	jal	402920 <matrix_mul_matrix>
  4021c8:	00000000 	nop
  4021cc:	87c20012 	lh	v0,18(s8)
  4021d0:	8fc40028 	lw	a0,40(s8)
  4021d4:	8fc5002c 	lw	a1,44(s8)
  4021d8:	00403025 	move	a2,v0
  4021dc:	0c100940 	jal	402500 <matrix_sum>
  4021e0:	00000000 	nop
  4021e4:	00401825 	move	v1,v0
  4021e8:	97c20010 	lhu	v0,16(s8)
  4021ec:	00602025 	move	a0,v1
  4021f0:	00402825 	move	a1,v0
  4021f4:	0c100eb2 	jal	403ac8 <crc16>
  4021f8:	00000000 	nop
  4021fc:	a7c20010 	sh	v0,16(s8)
  402200:	8fc40028 	lw	a0,40(s8)
  402204:	8fc5002c 	lw	a1,44(s8)
  402208:	8fc60030 	lw	a2,48(s8)
  40220c:	8fc70034 	lw	a3,52(s8)
  402210:	0c100aab 	jal	402aac <matrix_mul_matrix_bitextract>
  402214:	00000000 	nop
  402218:	87c20012 	lh	v0,18(s8)
  40221c:	8fc40028 	lw	a0,40(s8)
  402220:	8fc5002c 	lw	a1,44(s8)
  402224:	00403025 	move	a2,v0
  402228:	0c100940 	jal	402500 <matrix_sum>
  40222c:	00000000 	nop
  402230:	00401825 	move	v1,v0
  402234:	97c20010 	lhu	v0,16(s8)
  402238:	00602025 	move	a0,v1
  40223c:	00402825 	move	a1,v0
  402240:	0c100eb2 	jal	403ac8 <crc16>
  402244:	00000000 	nop
  402248:	a7c20010 	sh	v0,16(s8)
  40224c:	97c20018 	lhu	v0,24(s8)
  402250:	00021023 	negu	v0,v0
  402254:	3042ffff 	andi	v0,v0,0xffff
  402258:	00021400 	sll	v0,v0,0x10
  40225c:	00021403 	sra	v0,v0,0x10
  402260:	8fc40028 	lw	a0,40(s8)
  402264:	8fc50030 	lw	a1,48(s8)
  402268:	00403025 	move	a2,v0
  40226c:	0c1009c8 	jal	402720 <matrix_add_const>
  402270:	00000000 	nop
  402274:	87c20010 	lh	v0,16(s8)
  402278:	03c0e825 	move	sp,s8
  40227c:	8fbf0024 	lw	ra,36(sp)
  402280:	8fbe0020 	lw	s8,32(sp)
  402284:	27bd0028 	addiu	sp,sp,40
  402288:	03e00008 	jr	ra
  40228c:	00000000 	nop

00402290 <core_init_matrix>:
  402290:	27bdffd8 	addiu	sp,sp,-40
  402294:	afbe0024 	sw	s8,36(sp)
  402298:	03a0f025 	move	s8,sp
  40229c:	afc40028 	sw	a0,40(s8)
  4022a0:	afc5002c 	sw	a1,44(s8)
  4022a4:	afc60030 	sw	a2,48(s8)
  4022a8:	afc70034 	sw	a3,52(s8)
  4022ac:	afc0000c 	sw	zero,12(s8)
  4022b0:	24020001 	li	v0,1
  4022b4:	afc20000 	sw	v0,0(s8)
  4022b8:	afc00004 	sw	zero,4(s8)
  4022bc:	afc00008 	sw	zero,8(s8)
  4022c0:	8fc20030 	lw	v0,48(s8)
  4022c4:	14400003 	bnez	v0,4022d4 <core_init_matrix+0x44>
  4022c8:	00000000 	nop
  4022cc:	24020001 	li	v0,1
  4022d0:	afc20030 	sw	v0,48(s8)
  4022d4:	1000000a 	b	402300 <core_init_matrix+0x70>
  4022d8:	00000000 	nop
  4022dc:	8fc20004 	lw	v0,4(s8)
  4022e0:	24420001 	addiu	v0,v0,1
  4022e4:	afc20004 	sw	v0,4(s8)
  4022e8:	8fc30004 	lw	v1,4(s8)
  4022ec:	8fc20004 	lw	v0,4(s8)
  4022f0:	00620018 	mult	v1,v0
  4022f4:	00001012 	mflo	v0
  4022f8:	000210c0 	sll	v0,v0,0x3
  4022fc:	afc20008 	sw	v0,8(s8)
  402300:	8fc30008 	lw	v1,8(s8)
  402304:	8fc20028 	lw	v0,40(s8)
  402308:	0062102b 	sltu	v0,v1,v0
  40230c:	1440fff3 	bnez	v0,4022dc <core_init_matrix+0x4c>
  402310:	00000000 	nop
  402314:	8fc20004 	lw	v0,4(s8)
  402318:	2442ffff 	addiu	v0,v0,-1
  40231c:	afc2000c 	sw	v0,12(s8)
  402320:	8fc2002c 	lw	v0,44(s8)
  402324:	2443ffff 	addiu	v1,v0,-1
  402328:	2402fffc 	li	v0,-4
  40232c:	00621024 	and	v0,v1,v0
  402330:	24420004 	addiu	v0,v0,4
  402334:	afc20010 	sw	v0,16(s8)
  402338:	8fc3000c 	lw	v1,12(s8)
  40233c:	8fc2000c 	lw	v0,12(s8)
  402340:	00620018 	mult	v1,v0
  402344:	00001012 	mflo	v0
  402348:	00021040 	sll	v0,v0,0x1
  40234c:	8fc30010 	lw	v1,16(s8)
  402350:	00621021 	addu	v0,v1,v0
  402354:	afc20014 	sw	v0,20(s8)
  402358:	afc00004 	sw	zero,4(s8)
  40235c:	10000046 	b	402478 <core_init_matrix+0x1e8>
  402360:	00000000 	nop
  402364:	afc00008 	sw	zero,8(s8)
  402368:	1000003b 	b	402458 <core_init_matrix+0x1c8>
  40236c:	00000000 	nop
  402370:	8fc30000 	lw	v1,0(s8)
  402374:	8fc20030 	lw	v0,48(s8)
  402378:	00620018 	mult	v1,v0
  40237c:	3c028000 	lui	v0,0x8000
  402380:	3442ffff 	ori	v0,v0,0xffff
  402384:	00001812 	mflo	v1
  402388:	00621024 	and	v0,v1,v0
  40238c:	04410005 	bgez	v0,4023a4 <core_init_matrix+0x114>
  402390:	00000000 	nop
  402394:	2442ffff 	addiu	v0,v0,-1
  402398:	3c03ffff 	lui	v1,0xffff
  40239c:	00431025 	or	v0,v0,v1
  4023a0:	24420001 	addiu	v0,v0,1
  4023a4:	afc20030 	sw	v0,48(s8)
  4023a8:	8fc20030 	lw	v0,48(s8)
  4023ac:	3043ffff 	andi	v1,v0,0xffff
  4023b0:	8fc20000 	lw	v0,0(s8)
  4023b4:	3042ffff 	andi	v0,v0,0xffff
  4023b8:	00621021 	addu	v0,v1,v0
  4023bc:	3042ffff 	andi	v0,v0,0xffff
  4023c0:	a7c20018 	sh	v0,24(s8)
  4023c4:	8fc30004 	lw	v1,4(s8)
  4023c8:	8fc2000c 	lw	v0,12(s8)
  4023cc:	00620018 	mult	v1,v0
  4023d0:	8fc20008 	lw	v0,8(s8)
  4023d4:	00001812 	mflo	v1
  4023d8:	00621021 	addu	v0,v1,v0
  4023dc:	00021040 	sll	v0,v0,0x1
  4023e0:	8fc30014 	lw	v1,20(s8)
  4023e4:	00621021 	addu	v0,v1,v0
  4023e8:	97c30018 	lhu	v1,24(s8)
  4023ec:	a4430000 	sh	v1,0(v0)
  4023f0:	8fc20000 	lw	v0,0(s8)
  4023f4:	3043ffff 	andi	v1,v0,0xffff
  4023f8:	97c20018 	lhu	v0,24(s8)
  4023fc:	00621021 	addu	v0,v1,v0
  402400:	3042ffff 	andi	v0,v0,0xffff
  402404:	a7c20018 	sh	v0,24(s8)
  402408:	97c20018 	lhu	v0,24(s8)
  40240c:	304200ff 	andi	v0,v0,0xff
  402410:	a7c20018 	sh	v0,24(s8)
  402414:	8fc30004 	lw	v1,4(s8)
  402418:	8fc2000c 	lw	v0,12(s8)
  40241c:	00620018 	mult	v1,v0
  402420:	8fc20008 	lw	v0,8(s8)
  402424:	00001812 	mflo	v1
  402428:	00621021 	addu	v0,v1,v0
  40242c:	00021040 	sll	v0,v0,0x1
  402430:	8fc30010 	lw	v1,16(s8)
  402434:	00621021 	addu	v0,v1,v0
  402438:	97c30018 	lhu	v1,24(s8)
  40243c:	a4430000 	sh	v1,0(v0)
  402440:	8fc20000 	lw	v0,0(s8)
  402444:	24420001 	addiu	v0,v0,1
  402448:	afc20000 	sw	v0,0(s8)
  40244c:	8fc20008 	lw	v0,8(s8)
  402450:	24420001 	addiu	v0,v0,1
  402454:	afc20008 	sw	v0,8(s8)
  402458:	8fc30008 	lw	v1,8(s8)
  40245c:	8fc2000c 	lw	v0,12(s8)
  402460:	0062102b 	sltu	v0,v1,v0
  402464:	1440ffc2 	bnez	v0,402370 <core_init_matrix+0xe0>
  402468:	00000000 	nop
  40246c:	8fc20004 	lw	v0,4(s8)
  402470:	24420001 	addiu	v0,v0,1
  402474:	afc20004 	sw	v0,4(s8)
  402478:	8fc30004 	lw	v1,4(s8)
  40247c:	8fc2000c 	lw	v0,12(s8)
  402480:	0062102b 	sltu	v0,v1,v0
  402484:	1440ffb7 	bnez	v0,402364 <core_init_matrix+0xd4>
  402488:	00000000 	nop
  40248c:	8fc20034 	lw	v0,52(s8)
  402490:	8fc30010 	lw	v1,16(s8)
  402494:	ac430004 	sw	v1,4(v0)
  402498:	8fc20034 	lw	v0,52(s8)
  40249c:	8fc30014 	lw	v1,20(s8)
  4024a0:	ac430008 	sw	v1,8(v0)
  4024a4:	8fc3000c 	lw	v1,12(s8)
  4024a8:	8fc2000c 	lw	v0,12(s8)
  4024ac:	00620018 	mult	v1,v0
  4024b0:	00001012 	mflo	v0
  4024b4:	00021040 	sll	v0,v0,0x1
  4024b8:	8fc30014 	lw	v1,20(s8)
  4024bc:	00621021 	addu	v0,v1,v0
  4024c0:	2443ffff 	addiu	v1,v0,-1
  4024c4:	2402fffc 	li	v0,-4
  4024c8:	00621024 	and	v0,v1,v0
  4024cc:	24420004 	addiu	v0,v0,4
  4024d0:	00401825 	move	v1,v0
  4024d4:	8fc20034 	lw	v0,52(s8)
  4024d8:	ac43000c 	sw	v1,12(v0)
  4024dc:	8fc3000c 	lw	v1,12(s8)
  4024e0:	8fc20034 	lw	v0,52(s8)
  4024e4:	ac430000 	sw	v1,0(v0)
  4024e8:	8fc2000c 	lw	v0,12(s8)
  4024ec:	03c0e825 	move	sp,s8
  4024f0:	8fbe0024 	lw	s8,36(sp)
  4024f4:	27bd0028 	addiu	sp,sp,40
  4024f8:	03e00008 	jr	ra
  4024fc:	00000000 	nop

00402500 <matrix_sum>:
  402500:	27bdffe0 	addiu	sp,sp,-32
  402504:	afbe001c 	sw	s8,28(sp)
  402508:	03a0f025 	move	s8,sp
  40250c:	afc40020 	sw	a0,32(s8)
  402510:	afc50024 	sw	a1,36(s8)
  402514:	00c01025 	move	v0,a2
  402518:	a7c20028 	sh	v0,40(s8)
  40251c:	afc00000 	sw	zero,0(s8)
  402520:	afc00004 	sw	zero,4(s8)
  402524:	afc00014 	sw	zero,20(s8)
  402528:	a7c00008 	sh	zero,8(s8)
  40252c:	afc0000c 	sw	zero,12(s8)
  402530:	10000035 	b	402608 <matrix_sum+0x108>
  402534:	00000000 	nop
  402538:	afc00010 	sw	zero,16(s8)
  40253c:	1000002a 	b	4025e8 <matrix_sum+0xe8>
  402540:	00000000 	nop
  402544:	8fc3000c 	lw	v1,12(s8)
  402548:	8fc20020 	lw	v0,32(s8)
  40254c:	00620018 	mult	v1,v0
  402550:	8fc20010 	lw	v0,16(s8)
  402554:	00001812 	mflo	v1
  402558:	00621021 	addu	v0,v1,v0
  40255c:	00021080 	sll	v0,v0,0x2
  402560:	8fc30024 	lw	v1,36(s8)
  402564:	00621021 	addu	v0,v1,v0
  402568:	8c420000 	lw	v0,0(v0)
  40256c:	afc20014 	sw	v0,20(s8)
  402570:	8fc30000 	lw	v1,0(s8)
  402574:	8fc20014 	lw	v0,20(s8)
  402578:	00621021 	addu	v0,v1,v0
  40257c:	afc20000 	sw	v0,0(s8)
  402580:	87c30028 	lh	v1,40(s8)
  402584:	8fc20000 	lw	v0,0(s8)
  402588:	0062102a 	slt	v0,v1,v0
  40258c:	10400008 	beqz	v0,4025b0 <matrix_sum+0xb0>
  402590:	00000000 	nop
  402594:	97c20008 	lhu	v0,8(s8)
  402598:	2442000a 	addiu	v0,v0,10
  40259c:	3042ffff 	andi	v0,v0,0xffff
  4025a0:	a7c20008 	sh	v0,8(s8)
  4025a4:	afc00000 	sw	zero,0(s8)
  4025a8:	1000000a 	b	4025d4 <matrix_sum+0xd4>
  4025ac:	00000000 	nop
  4025b0:	8fc30014 	lw	v1,20(s8)
  4025b4:	8fc20004 	lw	v0,4(s8)
  4025b8:	0043102a 	slt	v0,v0,v1
  4025bc:	304200ff 	andi	v0,v0,0xff
  4025c0:	3043ffff 	andi	v1,v0,0xffff
  4025c4:	97c20008 	lhu	v0,8(s8)
  4025c8:	00621021 	addu	v0,v1,v0
  4025cc:	3042ffff 	andi	v0,v0,0xffff
  4025d0:	a7c20008 	sh	v0,8(s8)
  4025d4:	8fc20014 	lw	v0,20(s8)
  4025d8:	afc20004 	sw	v0,4(s8)
  4025dc:	8fc20010 	lw	v0,16(s8)
  4025e0:	24420001 	addiu	v0,v0,1
  4025e4:	afc20010 	sw	v0,16(s8)
  4025e8:	8fc30010 	lw	v1,16(s8)
  4025ec:	8fc20020 	lw	v0,32(s8)
  4025f0:	0062102b 	sltu	v0,v1,v0
  4025f4:	1440ffd3 	bnez	v0,402544 <matrix_sum+0x44>
  4025f8:	00000000 	nop
  4025fc:	8fc2000c 	lw	v0,12(s8)
  402600:	24420001 	addiu	v0,v0,1
  402604:	afc2000c 	sw	v0,12(s8)
  402608:	8fc3000c 	lw	v1,12(s8)
  40260c:	8fc20020 	lw	v0,32(s8)
  402610:	0062102b 	sltu	v0,v1,v0
  402614:	1440ffc8 	bnez	v0,402538 <matrix_sum+0x38>
  402618:	00000000 	nop
  40261c:	87c20008 	lh	v0,8(s8)
  402620:	03c0e825 	move	sp,s8
  402624:	8fbe001c 	lw	s8,28(sp)
  402628:	27bd0020 	addiu	sp,sp,32
  40262c:	03e00008 	jr	ra
  402630:	00000000 	nop

00402634 <matrix_mul_const>:
  402634:	27bdfff0 	addiu	sp,sp,-16
  402638:	afbe000c 	sw	s8,12(sp)
  40263c:	03a0f025 	move	s8,sp
  402640:	afc40010 	sw	a0,16(s8)
  402644:	afc50014 	sw	a1,20(s8)
  402648:	afc60018 	sw	a2,24(s8)
  40264c:	00e01025 	move	v0,a3
  402650:	a7c2001c 	sh	v0,28(s8)
  402654:	afc00000 	sw	zero,0(s8)
  402658:	10000027 	b	4026f8 <matrix_mul_const+0xc4>
  40265c:	00000000 	nop
  402660:	afc00004 	sw	zero,4(s8)
  402664:	1000001c 	b	4026d8 <matrix_mul_const+0xa4>
  402668:	00000000 	nop
  40266c:	8fc30000 	lw	v1,0(s8)
  402670:	8fc20010 	lw	v0,16(s8)
  402674:	00620018 	mult	v1,v0
  402678:	8fc20004 	lw	v0,4(s8)
  40267c:	00001812 	mflo	v1
  402680:	00621021 	addu	v0,v1,v0
  402684:	00021080 	sll	v0,v0,0x2
  402688:	8fc30014 	lw	v1,20(s8)
  40268c:	00621021 	addu	v0,v1,v0
  402690:	8fc40000 	lw	a0,0(s8)
  402694:	8fc30010 	lw	v1,16(s8)
  402698:	00830018 	mult	a0,v1
  40269c:	8fc30004 	lw	v1,4(s8)
  4026a0:	00002012 	mflo	a0
  4026a4:	00831821 	addu	v1,a0,v1
  4026a8:	00031840 	sll	v1,v1,0x1
  4026ac:	8fc40018 	lw	a0,24(s8)
  4026b0:	00831821 	addu	v1,a0,v1
  4026b4:	84630000 	lh	v1,0(v1)
  4026b8:	00602025 	move	a0,v1
  4026bc:	87c3001c 	lh	v1,28(s8)
  4026c0:	00830018 	mult	a0,v1
  4026c4:	00001812 	mflo	v1
  4026c8:	ac430000 	sw	v1,0(v0)
  4026cc:	8fc20004 	lw	v0,4(s8)
  4026d0:	24420001 	addiu	v0,v0,1
  4026d4:	afc20004 	sw	v0,4(s8)
  4026d8:	8fc30004 	lw	v1,4(s8)
  4026dc:	8fc20010 	lw	v0,16(s8)
  4026e0:	0062102b 	sltu	v0,v1,v0
  4026e4:	1440ffe1 	bnez	v0,40266c <matrix_mul_const+0x38>
  4026e8:	00000000 	nop
  4026ec:	8fc20000 	lw	v0,0(s8)
  4026f0:	24420001 	addiu	v0,v0,1
  4026f4:	afc20000 	sw	v0,0(s8)
  4026f8:	8fc30000 	lw	v1,0(s8)
  4026fc:	8fc20010 	lw	v0,16(s8)
  402700:	0062102b 	sltu	v0,v1,v0
  402704:	1440ffd6 	bnez	v0,402660 <matrix_mul_const+0x2c>
  402708:	00000000 	nop
  40270c:	03c0e825 	move	sp,s8
  402710:	8fbe000c 	lw	s8,12(sp)
  402714:	27bd0010 	addiu	sp,sp,16
  402718:	03e00008 	jr	ra
  40271c:	00000000 	nop

00402720 <matrix_add_const>:
  402720:	27bdfff0 	addiu	sp,sp,-16
  402724:	afbe000c 	sw	s8,12(sp)
  402728:	03a0f025 	move	s8,sp
  40272c:	afc40010 	sw	a0,16(s8)
  402730:	afc50014 	sw	a1,20(s8)
  402734:	00c01025 	move	v0,a2
  402738:	a7c20018 	sh	v0,24(s8)
  40273c:	afc00000 	sw	zero,0(s8)
  402740:	10000029 	b	4027e8 <matrix_add_const+0xc8>
  402744:	00000000 	nop
  402748:	afc00004 	sw	zero,4(s8)
  40274c:	1000001e 	b	4027c8 <matrix_add_const+0xa8>
  402750:	00000000 	nop
  402754:	8fc30000 	lw	v1,0(s8)
  402758:	8fc20010 	lw	v0,16(s8)
  40275c:	00620018 	mult	v1,v0
  402760:	8fc20004 	lw	v0,4(s8)
  402764:	00001812 	mflo	v1
  402768:	00621021 	addu	v0,v1,v0
  40276c:	00021040 	sll	v0,v0,0x1
  402770:	8fc30014 	lw	v1,20(s8)
  402774:	00621021 	addu	v0,v1,v0
  402778:	8fc40000 	lw	a0,0(s8)
  40277c:	8fc30010 	lw	v1,16(s8)
  402780:	00830018 	mult	a0,v1
  402784:	8fc30004 	lw	v1,4(s8)
  402788:	00002012 	mflo	a0
  40278c:	00831821 	addu	v1,a0,v1
  402790:	00031840 	sll	v1,v1,0x1
  402794:	8fc40014 	lw	a0,20(s8)
  402798:	00831821 	addu	v1,a0,v1
  40279c:	84630000 	lh	v1,0(v1)
  4027a0:	3064ffff 	andi	a0,v1,0xffff
  4027a4:	97c30018 	lhu	v1,24(s8)
  4027a8:	00831821 	addu	v1,a0,v1
  4027ac:	3063ffff 	andi	v1,v1,0xffff
  4027b0:	00031c00 	sll	v1,v1,0x10
  4027b4:	00031c03 	sra	v1,v1,0x10
  4027b8:	a4430000 	sh	v1,0(v0)
  4027bc:	8fc20004 	lw	v0,4(s8)
  4027c0:	24420001 	addiu	v0,v0,1
  4027c4:	afc20004 	sw	v0,4(s8)
  4027c8:	8fc30004 	lw	v1,4(s8)
  4027cc:	8fc20010 	lw	v0,16(s8)
  4027d0:	0062102b 	sltu	v0,v1,v0
  4027d4:	1440ffdf 	bnez	v0,402754 <matrix_add_const+0x34>
  4027d8:	00000000 	nop
  4027dc:	8fc20000 	lw	v0,0(s8)
  4027e0:	24420001 	addiu	v0,v0,1
  4027e4:	afc20000 	sw	v0,0(s8)
  4027e8:	8fc30000 	lw	v1,0(s8)
  4027ec:	8fc20010 	lw	v0,16(s8)
  4027f0:	0062102b 	sltu	v0,v1,v0
  4027f4:	1440ffd4 	bnez	v0,402748 <matrix_add_const+0x28>
  4027f8:	00000000 	nop
  4027fc:	03c0e825 	move	sp,s8
  402800:	8fbe000c 	lw	s8,12(sp)
  402804:	27bd0010 	addiu	sp,sp,16
  402808:	03e00008 	jr	ra
  40280c:	00000000 	nop

00402810 <matrix_mul_vect>:
  402810:	27bdfff0 	addiu	sp,sp,-16
  402814:	afbe000c 	sw	s8,12(sp)
  402818:	03a0f025 	move	s8,sp
  40281c:	afc40010 	sw	a0,16(s8)
  402820:	afc50014 	sw	a1,20(s8)
  402824:	afc60018 	sw	a2,24(s8)
  402828:	afc7001c 	sw	a3,28(s8)
  40282c:	afc00000 	sw	zero,0(s8)
  402830:	10000031 	b	4028f8 <matrix_mul_vect+0xe8>
  402834:	00000000 	nop
  402838:	8fc20000 	lw	v0,0(s8)
  40283c:	00021080 	sll	v0,v0,0x2
  402840:	8fc30014 	lw	v1,20(s8)
  402844:	00621021 	addu	v0,v1,v0
  402848:	ac400000 	sw	zero,0(v0)
  40284c:	afc00004 	sw	zero,4(s8)
  402850:	10000021 	b	4028d8 <matrix_mul_vect+0xc8>
  402854:	00000000 	nop
  402858:	8fc20000 	lw	v0,0(s8)
  40285c:	00021080 	sll	v0,v0,0x2
  402860:	8fc30014 	lw	v1,20(s8)
  402864:	00621021 	addu	v0,v1,v0
  402868:	8fc30000 	lw	v1,0(s8)
  40286c:	00031880 	sll	v1,v1,0x2
  402870:	8fc40014 	lw	a0,20(s8)
  402874:	00831821 	addu	v1,a0,v1
  402878:	8c630000 	lw	v1,0(v1)
  40287c:	8fc50000 	lw	a1,0(s8)
  402880:	8fc40010 	lw	a0,16(s8)
  402884:	00a40018 	mult	a1,a0
  402888:	8fc40004 	lw	a0,4(s8)
  40288c:	00002812 	mflo	a1
  402890:	00a42021 	addu	a0,a1,a0
  402894:	00042040 	sll	a0,a0,0x1
  402898:	8fc50018 	lw	a1,24(s8)
  40289c:	00a42021 	addu	a0,a1,a0
  4028a0:	84840000 	lh	a0,0(a0)
  4028a4:	00803025 	move	a2,a0
  4028a8:	8fc40004 	lw	a0,4(s8)
  4028ac:	00042040 	sll	a0,a0,0x1
  4028b0:	8fc5001c 	lw	a1,28(s8)
  4028b4:	00a42021 	addu	a0,a1,a0
  4028b8:	84840000 	lh	a0,0(a0)
  4028bc:	00c40018 	mult	a2,a0
  4028c0:	00002012 	mflo	a0
  4028c4:	00641821 	addu	v1,v1,a0
  4028c8:	ac430000 	sw	v1,0(v0)
  4028cc:	8fc20004 	lw	v0,4(s8)
  4028d0:	24420001 	addiu	v0,v0,1
  4028d4:	afc20004 	sw	v0,4(s8)
  4028d8:	8fc30004 	lw	v1,4(s8)
  4028dc:	8fc20010 	lw	v0,16(s8)
  4028e0:	0062102b 	sltu	v0,v1,v0
  4028e4:	1440ffdc 	bnez	v0,402858 <matrix_mul_vect+0x48>
  4028e8:	00000000 	nop
  4028ec:	8fc20000 	lw	v0,0(s8)
  4028f0:	24420001 	addiu	v0,v0,1
  4028f4:	afc20000 	sw	v0,0(s8)
  4028f8:	8fc30000 	lw	v1,0(s8)
  4028fc:	8fc20010 	lw	v0,16(s8)
  402900:	0062102b 	sltu	v0,v1,v0
  402904:	1440ffcc 	bnez	v0,402838 <matrix_mul_vect+0x28>
  402908:	00000000 	nop
  40290c:	03c0e825 	move	sp,s8
  402910:	8fbe000c 	lw	s8,12(sp)
  402914:	27bd0010 	addiu	sp,sp,16
  402918:	03e00008 	jr	ra
  40291c:	00000000 	nop

00402920 <matrix_mul_matrix>:
  402920:	27bdffe8 	addiu	sp,sp,-24
  402924:	afbe0014 	sw	s8,20(sp)
  402928:	03a0f025 	move	s8,sp
  40292c:	afc40018 	sw	a0,24(s8)
  402930:	afc5001c 	sw	a1,28(s8)
  402934:	afc60020 	sw	a2,32(s8)
  402938:	afc70024 	sw	a3,36(s8)
  40293c:	afc00000 	sw	zero,0(s8)
  402940:	10000050 	b	402a84 <matrix_mul_matrix+0x164>
  402944:	00000000 	nop
  402948:	afc00004 	sw	zero,4(s8)
  40294c:	10000045 	b	402a64 <matrix_mul_matrix+0x144>
  402950:	00000000 	nop
  402954:	8fc30000 	lw	v1,0(s8)
  402958:	8fc20018 	lw	v0,24(s8)
  40295c:	00620018 	mult	v1,v0
  402960:	8fc20004 	lw	v0,4(s8)
  402964:	00001812 	mflo	v1
  402968:	00621021 	addu	v0,v1,v0
  40296c:	00021080 	sll	v0,v0,0x2
  402970:	8fc3001c 	lw	v1,28(s8)
  402974:	00621021 	addu	v0,v1,v0
  402978:	ac400000 	sw	zero,0(v0)
  40297c:	afc00008 	sw	zero,8(s8)
  402980:	10000030 	b	402a44 <matrix_mul_matrix+0x124>
  402984:	00000000 	nop
  402988:	8fc30000 	lw	v1,0(s8)
  40298c:	8fc20018 	lw	v0,24(s8)
  402990:	00620018 	mult	v1,v0
  402994:	8fc20004 	lw	v0,4(s8)
  402998:	00001812 	mflo	v1
  40299c:	00621021 	addu	v0,v1,v0
  4029a0:	00021080 	sll	v0,v0,0x2
  4029a4:	8fc3001c 	lw	v1,28(s8)
  4029a8:	00621021 	addu	v0,v1,v0
  4029ac:	8fc40000 	lw	a0,0(s8)
  4029b0:	8fc30018 	lw	v1,24(s8)
  4029b4:	00830018 	mult	a0,v1
  4029b8:	8fc30004 	lw	v1,4(s8)
  4029bc:	00002012 	mflo	a0
  4029c0:	00831821 	addu	v1,a0,v1
  4029c4:	00031880 	sll	v1,v1,0x2
  4029c8:	8fc4001c 	lw	a0,28(s8)
  4029cc:	00831821 	addu	v1,a0,v1
  4029d0:	8c630000 	lw	v1,0(v1)
  4029d4:	8fc50000 	lw	a1,0(s8)
  4029d8:	8fc40018 	lw	a0,24(s8)
  4029dc:	00a40018 	mult	a1,a0
  4029e0:	8fc40008 	lw	a0,8(s8)
  4029e4:	00002812 	mflo	a1
  4029e8:	00a42021 	addu	a0,a1,a0
  4029ec:	00042040 	sll	a0,a0,0x1
  4029f0:	8fc50020 	lw	a1,32(s8)
  4029f4:	00a42021 	addu	a0,a1,a0
  4029f8:	84840000 	lh	a0,0(a0)
  4029fc:	00803025 	move	a2,a0
  402a00:	8fc50008 	lw	a1,8(s8)
  402a04:	8fc40018 	lw	a0,24(s8)
  402a08:	00a40018 	mult	a1,a0
  402a0c:	8fc40004 	lw	a0,4(s8)
  402a10:	00002812 	mflo	a1
  402a14:	00a42021 	addu	a0,a1,a0
  402a18:	00042040 	sll	a0,a0,0x1
  402a1c:	8fc50024 	lw	a1,36(s8)
  402a20:	00a42021 	addu	a0,a1,a0
  402a24:	84840000 	lh	a0,0(a0)
  402a28:	00c40018 	mult	a2,a0
  402a2c:	00002012 	mflo	a0
  402a30:	00641821 	addu	v1,v1,a0
  402a34:	ac430000 	sw	v1,0(v0)
  402a38:	8fc20008 	lw	v0,8(s8)
  402a3c:	24420001 	addiu	v0,v0,1
  402a40:	afc20008 	sw	v0,8(s8)
  402a44:	8fc30008 	lw	v1,8(s8)
  402a48:	8fc20018 	lw	v0,24(s8)
  402a4c:	0062102b 	sltu	v0,v1,v0
  402a50:	1440ffcd 	bnez	v0,402988 <matrix_mul_matrix+0x68>
  402a54:	00000000 	nop
  402a58:	8fc20004 	lw	v0,4(s8)
  402a5c:	24420001 	addiu	v0,v0,1
  402a60:	afc20004 	sw	v0,4(s8)
  402a64:	8fc30004 	lw	v1,4(s8)
  402a68:	8fc20018 	lw	v0,24(s8)
  402a6c:	0062102b 	sltu	v0,v1,v0
  402a70:	1440ffb8 	bnez	v0,402954 <matrix_mul_matrix+0x34>
  402a74:	00000000 	nop
  402a78:	8fc20000 	lw	v0,0(s8)
  402a7c:	24420001 	addiu	v0,v0,1
  402a80:	afc20000 	sw	v0,0(s8)
  402a84:	8fc30000 	lw	v1,0(s8)
  402a88:	8fc20018 	lw	v0,24(s8)
  402a8c:	0062102b 	sltu	v0,v1,v0
  402a90:	1440ffad 	bnez	v0,402948 <matrix_mul_matrix+0x28>
  402a94:	00000000 	nop
  402a98:	03c0e825 	move	sp,s8
  402a9c:	8fbe0014 	lw	s8,20(sp)
  402aa0:	27bd0018 	addiu	sp,sp,24
  402aa4:	03e00008 	jr	ra
  402aa8:	00000000 	nop

00402aac <matrix_mul_matrix_bitextract>:
  402aac:	27bdffe8 	addiu	sp,sp,-24
  402ab0:	afbe0014 	sw	s8,20(sp)
  402ab4:	03a0f025 	move	s8,sp
  402ab8:	afc40018 	sw	a0,24(s8)
  402abc:	afc5001c 	sw	a1,28(s8)
  402ac0:	afc60020 	sw	a2,32(s8)
  402ac4:	afc70024 	sw	a3,36(s8)
  402ac8:	afc00000 	sw	zero,0(s8)
  402acc:	1000005a 	b	402c38 <matrix_mul_matrix_bitextract+0x18c>
  402ad0:	00000000 	nop
  402ad4:	afc00004 	sw	zero,4(s8)
  402ad8:	1000004f 	b	402c18 <matrix_mul_matrix_bitextract+0x16c>
  402adc:	00000000 	nop
  402ae0:	8fc30000 	lw	v1,0(s8)
  402ae4:	8fc20018 	lw	v0,24(s8)
  402ae8:	00620018 	mult	v1,v0
  402aec:	8fc20004 	lw	v0,4(s8)
  402af0:	00001812 	mflo	v1
  402af4:	00621021 	addu	v0,v1,v0
  402af8:	00021080 	sll	v0,v0,0x2
  402afc:	8fc3001c 	lw	v1,28(s8)
  402b00:	00621021 	addu	v0,v1,v0
  402b04:	ac400000 	sw	zero,0(v0)
  402b08:	afc00008 	sw	zero,8(s8)
  402b0c:	1000003a 	b	402bf8 <matrix_mul_matrix_bitextract+0x14c>
  402b10:	00000000 	nop
  402b14:	8fc30000 	lw	v1,0(s8)
  402b18:	8fc20018 	lw	v0,24(s8)
  402b1c:	00620018 	mult	v1,v0
  402b20:	8fc20008 	lw	v0,8(s8)
  402b24:	00001812 	mflo	v1
  402b28:	00621021 	addu	v0,v1,v0
  402b2c:	00021040 	sll	v0,v0,0x1
  402b30:	8fc30020 	lw	v1,32(s8)
  402b34:	00621021 	addu	v0,v1,v0
  402b38:	84420000 	lh	v0,0(v0)
  402b3c:	00402025 	move	a0,v0
  402b40:	8fc30008 	lw	v1,8(s8)
  402b44:	8fc20018 	lw	v0,24(s8)
  402b48:	00620018 	mult	v1,v0
  402b4c:	8fc20004 	lw	v0,4(s8)
  402b50:	00001812 	mflo	v1
  402b54:	00621021 	addu	v0,v1,v0
  402b58:	00021040 	sll	v0,v0,0x1
  402b5c:	8fc30024 	lw	v1,36(s8)
  402b60:	00621021 	addu	v0,v1,v0
  402b64:	84420000 	lh	v0,0(v0)
  402b68:	00820018 	mult	a0,v0
  402b6c:	00001012 	mflo	v0
  402b70:	afc2000c 	sw	v0,12(s8)
  402b74:	8fc30000 	lw	v1,0(s8)
  402b78:	8fc20018 	lw	v0,24(s8)
  402b7c:	00620018 	mult	v1,v0
  402b80:	8fc20004 	lw	v0,4(s8)
  402b84:	00001812 	mflo	v1
  402b88:	00621021 	addu	v0,v1,v0
  402b8c:	00021080 	sll	v0,v0,0x2
  402b90:	8fc3001c 	lw	v1,28(s8)
  402b94:	00621021 	addu	v0,v1,v0
  402b98:	8fc40000 	lw	a0,0(s8)
  402b9c:	8fc30018 	lw	v1,24(s8)
  402ba0:	00830018 	mult	a0,v1
  402ba4:	8fc30004 	lw	v1,4(s8)
  402ba8:	00002012 	mflo	a0
  402bac:	00831821 	addu	v1,a0,v1
  402bb0:	00031880 	sll	v1,v1,0x2
  402bb4:	8fc4001c 	lw	a0,28(s8)
  402bb8:	00831821 	addu	v1,a0,v1
  402bbc:	8c630000 	lw	v1,0(v1)
  402bc0:	00602825 	move	a1,v1
  402bc4:	8fc3000c 	lw	v1,12(s8)
  402bc8:	00031883 	sra	v1,v1,0x2
  402bcc:	3064000f 	andi	a0,v1,0xf
  402bd0:	8fc3000c 	lw	v1,12(s8)
  402bd4:	00031943 	sra	v1,v1,0x5
  402bd8:	3063007f 	andi	v1,v1,0x7f
  402bdc:	00830018 	mult	a0,v1
  402be0:	00001812 	mflo	v1
  402be4:	00a31821 	addu	v1,a1,v1
  402be8:	ac430000 	sw	v1,0(v0)
  402bec:	8fc20008 	lw	v0,8(s8)
  402bf0:	24420001 	addiu	v0,v0,1
  402bf4:	afc20008 	sw	v0,8(s8)
  402bf8:	8fc30008 	lw	v1,8(s8)
  402bfc:	8fc20018 	lw	v0,24(s8)
  402c00:	0062102b 	sltu	v0,v1,v0
  402c04:	1440ffc3 	bnez	v0,402b14 <matrix_mul_matrix_bitextract+0x68>
  402c08:	00000000 	nop
  402c0c:	8fc20004 	lw	v0,4(s8)
  402c10:	24420001 	addiu	v0,v0,1
  402c14:	afc20004 	sw	v0,4(s8)
  402c18:	8fc30004 	lw	v1,4(s8)
  402c1c:	8fc20018 	lw	v0,24(s8)
  402c20:	0062102b 	sltu	v0,v1,v0
  402c24:	1440ffae 	bnez	v0,402ae0 <matrix_mul_matrix_bitextract+0x34>
  402c28:	00000000 	nop
  402c2c:	8fc20000 	lw	v0,0(s8)
  402c30:	24420001 	addiu	v0,v0,1
  402c34:	afc20000 	sw	v0,0(s8)
  402c38:	8fc30000 	lw	v1,0(s8)
  402c3c:	8fc20018 	lw	v0,24(s8)
  402c40:	0062102b 	sltu	v0,v1,v0
  402c44:	1440ffa3 	bnez	v0,402ad4 <matrix_mul_matrix_bitextract+0x28>
  402c48:	00000000 	nop
  402c4c:	03c0e825 	move	sp,s8
  402c50:	8fbe0014 	lw	s8,20(sp)
  402c54:	27bd0018 	addiu	sp,sp,24
  402c58:	03e00008 	jr	ra
  402c5c:	00000000 	nop

00402c60 <barebones_clock>:
  402c60:	27bdfff8 	addiu	sp,sp,-8
  402c64:	afbe0004 	sw	s8,4(sp)
  402c68:	03a0f025 	move	s8,sp
  402c6c:	3c02bfd0 	lui	v0,0xbfd0
  402c70:	34420400 	ori	v0,v0,0x400
  402c74:	8c420000 	lw	v0,0(v0)
  402c78:	03c0e825 	move	sp,s8
  402c7c:	8fbe0004 	lw	s8,4(sp)
  402c80:	27bd0008 	addiu	sp,sp,8
  402c84:	03e00008 	jr	ra
  402c88:	00000000 	nop

00402c8c <start_time>:
  402c8c:	27bdffe8 	addiu	sp,sp,-24
  402c90:	afbf0014 	sw	ra,20(sp)
  402c94:	afbe0010 	sw	s8,16(sp)
  402c98:	03a0f025 	move	s8,sp
  402c9c:	0c100b18 	jal	402c60 <barebones_clock>
  402ca0:	00000000 	nop
  402ca4:	af828024 	sw	v0,-32732(gp)
  402ca8:	03c0e825 	move	sp,s8
  402cac:	8fbf0014 	lw	ra,20(sp)
  402cb0:	8fbe0010 	lw	s8,16(sp)
  402cb4:	27bd0018 	addiu	sp,sp,24
  402cb8:	03e00008 	jr	ra
  402cbc:	00000000 	nop

00402cc0 <stop_time>:
  402cc0:	27bdffe8 	addiu	sp,sp,-24
  402cc4:	afbf0014 	sw	ra,20(sp)
  402cc8:	afbe0010 	sw	s8,16(sp)
  402ccc:	03a0f025 	move	s8,sp
  402cd0:	0c100b18 	jal	402c60 <barebones_clock>
  402cd4:	00000000 	nop
  402cd8:	af828028 	sw	v0,-32728(gp)
  402cdc:	03c0e825 	move	sp,s8
  402ce0:	8fbf0014 	lw	ra,20(sp)
  402ce4:	8fbe0010 	lw	s8,16(sp)
  402ce8:	27bd0018 	addiu	sp,sp,24
  402cec:	03e00008 	jr	ra
  402cf0:	00000000 	nop

00402cf4 <get_time>:
  402cf4:	27bdfff0 	addiu	sp,sp,-16
  402cf8:	afbe000c 	sw	s8,12(sp)
  402cfc:	03a0f025 	move	s8,sp
  402d00:	8f838028 	lw	v1,-32728(gp)
  402d04:	8f828024 	lw	v0,-32732(gp)
  402d08:	00621023 	subu	v0,v1,v0
  402d0c:	afc20000 	sw	v0,0(s8)
  402d10:	8fc20000 	lw	v0,0(s8)
  402d14:	03c0e825 	move	sp,s8
  402d18:	8fbe000c 	lw	s8,12(sp)
  402d1c:	27bd0010 	addiu	sp,sp,16
  402d20:	03e00008 	jr	ra
  402d24:	00000000 	nop

00402d28 <time_in_secs>:
  402d28:	27bdfff0 	addiu	sp,sp,-16
  402d2c:	afbe000c 	sw	s8,12(sp)
  402d30:	03a0f025 	move	s8,sp
  402d34:	afc40010 	sw	a0,16(s8)
  402d38:	8fc30010 	lw	v1,16(s8)
  402d3c:	3c021062 	lui	v0,0x1062
  402d40:	34424dd3 	ori	v0,v0,0x4dd3
  402d44:	00620019 	multu	v1,v0
  402d48:	00001010 	mfhi	v0
  402d4c:	00021182 	srl	v0,v0,0x6
  402d50:	afc20000 	sw	v0,0(s8)
  402d54:	8fc20000 	lw	v0,0(s8)
  402d58:	03c0e825 	move	sp,s8
  402d5c:	8fbe000c 	lw	s8,12(sp)
  402d60:	27bd0010 	addiu	sp,sp,16
  402d64:	03e00008 	jr	ra
  402d68:	00000000 	nop

00402d6c <portable_init>:
  402d6c:	27bdffe8 	addiu	sp,sp,-24
  402d70:	afbf0014 	sw	ra,20(sp)
  402d74:	afbe0010 	sw	s8,16(sp)
  402d78:	03a0f025 	move	s8,sp
  402d7c:	afc40018 	sw	a0,24(s8)
  402d80:	afc5001c 	sw	a1,28(s8)
  402d84:	afc60020 	sw	a2,32(s8)
  402d88:	3c020040 	lui	v0,0x40
  402d8c:	244451ec 	addiu	a0,v0,20972
  402d90:	0c10134f 	jal	404d3c <ee_printf>
  402d94:	00000000 	nop
  402d98:	8fc20018 	lw	v0,24(s8)
  402d9c:	24030001 	li	v1,1
  402da0:	a0430000 	sb	v1,0(v0)
  402da4:	03c0e825 	move	sp,s8
  402da8:	8fbf0014 	lw	ra,20(sp)
  402dac:	8fbe0010 	lw	s8,16(sp)
  402db0:	27bd0018 	addiu	sp,sp,24
  402db4:	03e00008 	jr	ra
  402db8:	00000000 	nop

00402dbc <portable_fini>:
  402dbc:	27bdfff8 	addiu	sp,sp,-8
  402dc0:	afbe0004 	sw	s8,4(sp)
  402dc4:	03a0f025 	move	s8,sp
  402dc8:	afc40008 	sw	a0,8(s8)
  402dcc:	8fc20008 	lw	v0,8(s8)
  402dd0:	a0400000 	sb	zero,0(v0)
  402dd4:	1000ffff 	b	402dd4 <portable_fini+0x18>
  402dd8:	00000000 	nop

00402ddc <core_bench_state>:
  402ddc:	27bdff90 	addiu	sp,sp,-112
  402de0:	afbf006c 	sw	ra,108(sp)
  402de4:	afbe0068 	sw	s8,104(sp)
  402de8:	03a0f025 	move	s8,sp
  402dec:	afc40070 	sw	a0,112(s8)
  402df0:	afc50074 	sw	a1,116(s8)
  402df4:	00c02825 	move	a1,a2
  402df8:	00e02025 	move	a0,a3
  402dfc:	8fc30080 	lw	v1,128(s8)
  402e00:	8fc20084 	lw	v0,132(s8)
  402e04:	a7c50078 	sh	a1,120(s8)
  402e08:	a7c4007c 	sh	a0,124(s8)
  402e0c:	a7c30060 	sh	v1,96(s8)
  402e10:	a7c20064 	sh	v0,100(s8)
  402e14:	8fc20074 	lw	v0,116(s8)
  402e18:	afc2005c 	sw	v0,92(s8)
  402e1c:	afc00010 	sw	zero,16(s8)
  402e20:	10000013 	b	402e70 <core_bench_state+0x94>
  402e24:	00000000 	nop
  402e28:	8fc20010 	lw	v0,16(s8)
  402e2c:	00021080 	sll	v0,v0,0x2
  402e30:	27c30010 	addiu	v1,s8,16
  402e34:	00621021 	addu	v0,v1,v0
  402e38:	ac40002c 	sw	zero,44(v0)
  402e3c:	8fc20010 	lw	v0,16(s8)
  402e40:	00021080 	sll	v0,v0,0x2
  402e44:	27c30010 	addiu	v1,s8,16
  402e48:	00621021 	addu	v0,v1,v0
  402e4c:	8c43002c 	lw	v1,44(v0)
  402e50:	8fc20010 	lw	v0,16(s8)
  402e54:	00021080 	sll	v0,v0,0x2
  402e58:	27c40010 	addiu	a0,s8,16
  402e5c:	00821021 	addu	v0,a0,v0
  402e60:	ac43000c 	sw	v1,12(v0)
  402e64:	8fc20010 	lw	v0,16(s8)
  402e68:	24420001 	addiu	v0,v0,1
  402e6c:	afc20010 	sw	v0,16(s8)
  402e70:	8fc20010 	lw	v0,16(s8)
  402e74:	2c420008 	sltiu	v0,v0,8
  402e78:	1440ffeb 	bnez	v0,402e28 <core_bench_state+0x4c>
  402e7c:	00000000 	nop
  402e80:	10000013 	b	402ed0 <core_bench_state+0xf4>
  402e84:	00000000 	nop
  402e88:	27c3005c 	addiu	v1,s8,92
  402e8c:	27c2003c 	addiu	v0,s8,60
  402e90:	00602025 	move	a0,v1
  402e94:	00402825 	move	a1,v0
  402e98:	0c100cea 	jal	4033a8 <core_state_transition>
  402e9c:	00000000 	nop
  402ea0:	afc20014 	sw	v0,20(s8)
  402ea4:	8fc20014 	lw	v0,20(s8)
  402ea8:	00021080 	sll	v0,v0,0x2
  402eac:	27c30010 	addiu	v1,s8,16
  402eb0:	00621021 	addu	v0,v1,v0
  402eb4:	8c42000c 	lw	v0,12(v0)
  402eb8:	24430001 	addiu	v1,v0,1
  402ebc:	8fc20014 	lw	v0,20(s8)
  402ec0:	00021080 	sll	v0,v0,0x2
  402ec4:	27c40010 	addiu	a0,s8,16
  402ec8:	00821021 	addu	v0,a0,v0
  402ecc:	ac43000c 	sw	v1,12(v0)
  402ed0:	8fc2005c 	lw	v0,92(s8)
  402ed4:	90420000 	lbu	v0,0(v0)
  402ed8:	1440ffeb 	bnez	v0,402e88 <core_bench_state+0xac>
  402edc:	00000000 	nop
  402ee0:	8fc20074 	lw	v0,116(s8)
  402ee4:	afc2005c 	sw	v0,92(s8)
  402ee8:	10000012 	b	402f34 <core_bench_state+0x158>
  402eec:	00000000 	nop
  402ef0:	8fc2005c 	lw	v0,92(s8)
  402ef4:	90430000 	lbu	v1,0(v0)
  402ef8:	2402002c 	li	v0,44
  402efc:	10620009 	beq	v1,v0,402f24 <core_bench_state+0x148>
  402f00:	00000000 	nop
  402f04:	8fc2005c 	lw	v0,92(s8)
  402f08:	8fc3005c 	lw	v1,92(s8)
  402f0c:	90640000 	lbu	a0,0(v1)
  402f10:	97c30078 	lhu	v1,120(s8)
  402f14:	306300ff 	andi	v1,v1,0xff
  402f18:	00831826 	xor	v1,a0,v1
  402f1c:	306300ff 	andi	v1,v1,0xff
  402f20:	a0430000 	sb	v1,0(v0)
  402f24:	8fc3005c 	lw	v1,92(s8)
  402f28:	87c20060 	lh	v0,96(s8)
  402f2c:	00621021 	addu	v0,v1,v0
  402f30:	afc2005c 	sw	v0,92(s8)
  402f34:	8fc30074 	lw	v1,116(s8)
  402f38:	8fc20070 	lw	v0,112(s8)
  402f3c:	00621821 	addu	v1,v1,v0
  402f40:	8fc2005c 	lw	v0,92(s8)
  402f44:	0043102b 	sltu	v0,v0,v1
  402f48:	1440ffe9 	bnez	v0,402ef0 <core_bench_state+0x114>
  402f4c:	00000000 	nop
  402f50:	8fc20074 	lw	v0,116(s8)
  402f54:	afc2005c 	sw	v0,92(s8)
  402f58:	10000013 	b	402fa8 <core_bench_state+0x1cc>
  402f5c:	00000000 	nop
  402f60:	27c3005c 	addiu	v1,s8,92
  402f64:	27c2003c 	addiu	v0,s8,60
  402f68:	00602025 	move	a0,v1
  402f6c:	00402825 	move	a1,v0
  402f70:	0c100cea 	jal	4033a8 <core_state_transition>
  402f74:	00000000 	nop
  402f78:	afc20018 	sw	v0,24(s8)
  402f7c:	8fc20018 	lw	v0,24(s8)
  402f80:	00021080 	sll	v0,v0,0x2
  402f84:	27c30010 	addiu	v1,s8,16
  402f88:	00621021 	addu	v0,v1,v0
  402f8c:	8c42000c 	lw	v0,12(v0)
  402f90:	24430001 	addiu	v1,v0,1
  402f94:	8fc20018 	lw	v0,24(s8)
  402f98:	00021080 	sll	v0,v0,0x2
  402f9c:	27c40010 	addiu	a0,s8,16
  402fa0:	00821021 	addu	v0,a0,v0
  402fa4:	ac43000c 	sw	v1,12(v0)
  402fa8:	8fc2005c 	lw	v0,92(s8)
  402fac:	90420000 	lbu	v0,0(v0)
  402fb0:	1440ffeb 	bnez	v0,402f60 <core_bench_state+0x184>
  402fb4:	00000000 	nop
  402fb8:	8fc20074 	lw	v0,116(s8)
  402fbc:	afc2005c 	sw	v0,92(s8)
  402fc0:	10000012 	b	40300c <core_bench_state+0x230>
  402fc4:	00000000 	nop
  402fc8:	8fc2005c 	lw	v0,92(s8)
  402fcc:	90430000 	lbu	v1,0(v0)
  402fd0:	2402002c 	li	v0,44
  402fd4:	10620009 	beq	v1,v0,402ffc <core_bench_state+0x220>
  402fd8:	00000000 	nop
  402fdc:	8fc2005c 	lw	v0,92(s8)
  402fe0:	8fc3005c 	lw	v1,92(s8)
  402fe4:	90640000 	lbu	a0,0(v1)
  402fe8:	97c3007c 	lhu	v1,124(s8)
  402fec:	306300ff 	andi	v1,v1,0xff
  402ff0:	00831826 	xor	v1,a0,v1
  402ff4:	306300ff 	andi	v1,v1,0xff
  402ff8:	a0430000 	sb	v1,0(v0)
  402ffc:	8fc3005c 	lw	v1,92(s8)
  403000:	87c20060 	lh	v0,96(s8)
  403004:	00621021 	addu	v0,v1,v0
  403008:	afc2005c 	sw	v0,92(s8)
  40300c:	8fc30074 	lw	v1,116(s8)
  403010:	8fc20070 	lw	v0,112(s8)
  403014:	00621821 	addu	v1,v1,v0
  403018:	8fc2005c 	lw	v0,92(s8)
  40301c:	0043102b 	sltu	v0,v0,v1
  403020:	1440ffe9 	bnez	v0,402fc8 <core_bench_state+0x1ec>
  403024:	00000000 	nop
  403028:	afc00010 	sw	zero,16(s8)
  40302c:	1000001a 	b	403098 <core_bench_state+0x2bc>
  403030:	00000000 	nop
  403034:	8fc20010 	lw	v0,16(s8)
  403038:	00021080 	sll	v0,v0,0x2
  40303c:	27c30010 	addiu	v1,s8,16
  403040:	00621021 	addu	v0,v1,v0
  403044:	8c43000c 	lw	v1,12(v0)
  403048:	97c20064 	lhu	v0,100(s8)
  40304c:	00602025 	move	a0,v1
  403050:	00402825 	move	a1,v0
  403054:	0c100e8f 	jal	403a3c <crcu32>
  403058:	00000000 	nop
  40305c:	a7c20064 	sh	v0,100(s8)
  403060:	8fc20010 	lw	v0,16(s8)
  403064:	00021080 	sll	v0,v0,0x2
  403068:	27c30010 	addiu	v1,s8,16
  40306c:	00621021 	addu	v0,v1,v0
  403070:	8c43002c 	lw	v1,44(v0)
  403074:	97c20064 	lhu	v0,100(s8)
  403078:	00602025 	move	a0,v1
  40307c:	00402825 	move	a1,v0
  403080:	0c100e8f 	jal	403a3c <crcu32>
  403084:	00000000 	nop
  403088:	a7c20064 	sh	v0,100(s8)
  40308c:	8fc20010 	lw	v0,16(s8)
  403090:	24420001 	addiu	v0,v0,1
  403094:	afc20010 	sw	v0,16(s8)
  403098:	8fc20010 	lw	v0,16(s8)
  40309c:	2c420008 	sltiu	v0,v0,8
  4030a0:	1440ffe4 	bnez	v0,403034 <core_bench_state+0x258>
  4030a4:	00000000 	nop
  4030a8:	97c20064 	lhu	v0,100(s8)
  4030ac:	03c0e825 	move	sp,s8
  4030b0:	8fbf006c 	lw	ra,108(sp)
  4030b4:	8fbe0068 	lw	s8,104(sp)
  4030b8:	27bd0070 	addiu	sp,sp,112
  4030bc:	03e00008 	jr	ra
  4030c0:	00000000 	nop

004030c4 <core_init_state>:
  4030c4:	27bdffe8 	addiu	sp,sp,-24
  4030c8:	afbe0014 	sw	s8,20(sp)
  4030cc:	03a0f025 	move	s8,sp
  4030d0:	afc40018 	sw	a0,24(s8)
  4030d4:	00a01025 	move	v0,a1
  4030d8:	afc60020 	sw	a2,32(s8)
  4030dc:	a7c2001c 	sh	v0,28(s8)
  4030e0:	afc00000 	sw	zero,0(s8)
  4030e4:	afc00004 	sw	zero,4(s8)
  4030e8:	afc0000c 	sw	zero,12(s8)
  4030ec:	8fc20018 	lw	v0,24(s8)
  4030f0:	2442ffff 	addiu	v0,v0,-1
  4030f4:	afc20018 	sw	v0,24(s8)
  4030f8:	afc00004 	sw	zero,4(s8)
  4030fc:	10000077 	b	4032dc <core_init_state+0x218>
  403100:	00000000 	nop
  403104:	8fc20004 	lw	v0,4(s8)
  403108:	10400022 	beqz	v0,403194 <core_init_state+0xd0>
  40310c:	00000000 	nop
  403110:	afc00008 	sw	zero,8(s8)
  403114:	1000000e 	b	403150 <core_init_state+0x8c>
  403118:	00000000 	nop
  40311c:	8fc30000 	lw	v1,0(s8)
  403120:	8fc20008 	lw	v0,8(s8)
  403124:	00621021 	addu	v0,v1,v0
  403128:	8fc30020 	lw	v1,32(s8)
  40312c:	00621021 	addu	v0,v1,v0
  403130:	8fc4000c 	lw	a0,12(s8)
  403134:	8fc30008 	lw	v1,8(s8)
  403138:	00831821 	addu	v1,a0,v1
  40313c:	90630000 	lbu	v1,0(v1)
  403140:	a0430000 	sb	v1,0(v0)
  403144:	8fc20008 	lw	v0,8(s8)
  403148:	24420001 	addiu	v0,v0,1
  40314c:	afc20008 	sw	v0,8(s8)
  403150:	8fc30008 	lw	v1,8(s8)
  403154:	8fc20004 	lw	v0,4(s8)
  403158:	0062102b 	sltu	v0,v1,v0
  40315c:	1440ffef 	bnez	v0,40311c <core_init_state+0x58>
  403160:	00000000 	nop
  403164:	8fc30000 	lw	v1,0(s8)
  403168:	8fc20008 	lw	v0,8(s8)
  40316c:	00621021 	addu	v0,v1,v0
  403170:	8fc30020 	lw	v1,32(s8)
  403174:	00621021 	addu	v0,v1,v0
  403178:	2403002c 	li	v1,44
  40317c:	a0430000 	sb	v1,0(v0)
  403180:	8fc30004 	lw	v1,4(s8)
  403184:	8fc20000 	lw	v0,0(s8)
  403188:	00621021 	addu	v0,v1,v0
  40318c:	24420001 	addiu	v0,v0,1
  403190:	afc20000 	sw	v0,0(s8)
  403194:	87c2001c 	lh	v0,28(s8)
  403198:	3042ffff 	andi	v0,v0,0xffff
  40319c:	24420001 	addiu	v0,v0,1
  4031a0:	3042ffff 	andi	v0,v0,0xffff
  4031a4:	a7c2001c 	sh	v0,28(s8)
  4031a8:	97c2001c 	lhu	v0,28(s8)
  4031ac:	30420007 	andi	v0,v0,0x7
  4031b0:	2c430008 	sltiu	v1,v0,8
  4031b4:	10600048 	beqz	v1,4032d8 <core_init_state+0x214>
  4031b8:	00000000 	nop
  4031bc:	00021880 	sll	v1,v0,0x2
  4031c0:	3c020040 	lui	v0,0x40
  4031c4:	244252d8 	addiu	v0,v0,21208
  4031c8:	00621021 	addu	v0,v1,v0
  4031cc:	8c420000 	lw	v0,0(v0)
  4031d0:	00400008 	jr	v0
  4031d4:	00000000 	nop
  4031d8:	87c2001c 	lh	v0,28(s8)
  4031dc:	000210c3 	sra	v0,v0,0x3
  4031e0:	00021400 	sll	v0,v0,0x10
  4031e4:	00021403 	sra	v0,v0,0x10
  4031e8:	3042ffff 	andi	v0,v0,0xffff
  4031ec:	30430003 	andi	v1,v0,0x3
  4031f0:	3c020041 	lui	v0,0x41
  4031f4:	00031880 	sll	v1,v1,0x2
  4031f8:	24425514 	addiu	v0,v0,21780
  4031fc:	00621021 	addu	v0,v1,v0
  403200:	8c420000 	lw	v0,0(v0)
  403204:	afc2000c 	sw	v0,12(s8)
  403208:	24020004 	li	v0,4
  40320c:	afc20004 	sw	v0,4(s8)
  403210:	10000032 	b	4032dc <core_init_state+0x218>
  403214:	00000000 	nop
  403218:	87c2001c 	lh	v0,28(s8)
  40321c:	000210c3 	sra	v0,v0,0x3
  403220:	00021400 	sll	v0,v0,0x10
  403224:	00021403 	sra	v0,v0,0x10
  403228:	3042ffff 	andi	v0,v0,0xffff
  40322c:	30430003 	andi	v1,v0,0x3
  403230:	3c020041 	lui	v0,0x41
  403234:	00031880 	sll	v1,v1,0x2
  403238:	24425524 	addiu	v0,v0,21796
  40323c:	00621021 	addu	v0,v1,v0
  403240:	8c420000 	lw	v0,0(v0)
  403244:	afc2000c 	sw	v0,12(s8)
  403248:	24020008 	li	v0,8
  40324c:	afc20004 	sw	v0,4(s8)
  403250:	10000022 	b	4032dc <core_init_state+0x218>
  403254:	00000000 	nop
  403258:	87c2001c 	lh	v0,28(s8)
  40325c:	000210c3 	sra	v0,v0,0x3
  403260:	00021400 	sll	v0,v0,0x10
  403264:	00021403 	sra	v0,v0,0x10
  403268:	3042ffff 	andi	v0,v0,0xffff
  40326c:	30430003 	andi	v1,v0,0x3
  403270:	3c020041 	lui	v0,0x41
  403274:	00031880 	sll	v1,v1,0x2
  403278:	24425534 	addiu	v0,v0,21812
  40327c:	00621021 	addu	v0,v1,v0
  403280:	8c420000 	lw	v0,0(v0)
  403284:	afc2000c 	sw	v0,12(s8)
  403288:	24020008 	li	v0,8
  40328c:	afc20004 	sw	v0,4(s8)
  403290:	10000012 	b	4032dc <core_init_state+0x218>
  403294:	00000000 	nop
  403298:	87c2001c 	lh	v0,28(s8)
  40329c:	000210c3 	sra	v0,v0,0x3
  4032a0:	00021400 	sll	v0,v0,0x10
  4032a4:	00021403 	sra	v0,v0,0x10
  4032a8:	3042ffff 	andi	v0,v0,0xffff
  4032ac:	30430003 	andi	v1,v0,0x3
  4032b0:	3c020041 	lui	v0,0x41
  4032b4:	00031880 	sll	v1,v1,0x2
  4032b8:	24425544 	addiu	v0,v0,21828
  4032bc:	00621021 	addu	v0,v1,v0
  4032c0:	8c420000 	lw	v0,0(v0)
  4032c4:	afc2000c 	sw	v0,12(s8)
  4032c8:	24020008 	li	v0,8
  4032cc:	afc20004 	sw	v0,4(s8)
  4032d0:	10000002 	b	4032dc <core_init_state+0x218>
  4032d4:	00000000 	nop
  4032d8:	00000000 	nop
  4032dc:	8fc30000 	lw	v1,0(s8)
  4032e0:	8fc20004 	lw	v0,4(s8)
  4032e4:	00621021 	addu	v0,v1,v0
  4032e8:	24430001 	addiu	v1,v0,1
  4032ec:	8fc20018 	lw	v0,24(s8)
  4032f0:	0062102b 	sltu	v0,v1,v0
  4032f4:	1440ff83 	bnez	v0,403104 <core_init_state+0x40>
  4032f8:	00000000 	nop
  4032fc:	8fc20018 	lw	v0,24(s8)
  403300:	24420001 	addiu	v0,v0,1
  403304:	afc20018 	sw	v0,24(s8)
  403308:	10000008 	b	40332c <core_init_state+0x268>
  40330c:	00000000 	nop
  403310:	8fc30020 	lw	v1,32(s8)
  403314:	8fc20000 	lw	v0,0(s8)
  403318:	00621021 	addu	v0,v1,v0
  40331c:	a0400000 	sb	zero,0(v0)
  403320:	8fc20000 	lw	v0,0(s8)
  403324:	24420001 	addiu	v0,v0,1
  403328:	afc20000 	sw	v0,0(s8)
  40332c:	8fc30000 	lw	v1,0(s8)
  403330:	8fc20018 	lw	v0,24(s8)
  403334:	0062102b 	sltu	v0,v1,v0
  403338:	1440fff5 	bnez	v0,403310 <core_init_state+0x24c>
  40333c:	00000000 	nop
  403340:	03c0e825 	move	sp,s8
  403344:	8fbe0014 	lw	s8,20(sp)
  403348:	27bd0018 	addiu	sp,sp,24
  40334c:	03e00008 	jr	ra
  403350:	00000000 	nop

00403354 <ee_isdigit>:
  403354:	27bdfff0 	addiu	sp,sp,-16
  403358:	afbe000c 	sw	s8,12(sp)
  40335c:	03a0f025 	move	s8,sp
  403360:	00801025 	move	v0,a0
  403364:	a3c20010 	sb	v0,16(s8)
  403368:	93c20010 	lbu	v0,16(s8)
  40336c:	2c420030 	sltiu	v0,v0,48
  403370:	38420001 	xori	v0,v0,0x1
  403374:	304300ff 	andi	v1,v0,0xff
  403378:	93c20010 	lbu	v0,16(s8)
  40337c:	2c42003a 	sltiu	v0,v0,58
  403380:	304200ff 	andi	v0,v0,0xff
  403384:	00621024 	and	v0,v1,v0
  403388:	304200ff 	andi	v0,v0,0xff
  40338c:	a3c20000 	sb	v0,0(s8)
  403390:	93c20000 	lbu	v0,0(s8)
  403394:	03c0e825 	move	sp,s8
  403398:	8fbe000c 	lw	s8,12(sp)
  40339c:	27bd0010 	addiu	sp,sp,16
  4033a0:	03e00008 	jr	ra
  4033a4:	00000000 	nop

004033a8 <core_state_transition>:
  4033a8:	27bdffd8 	addiu	sp,sp,-40
  4033ac:	afbf0024 	sw	ra,36(sp)
  4033b0:	afbe0020 	sw	s8,32(sp)
  4033b4:	03a0f025 	move	s8,sp
  4033b8:	afc40028 	sw	a0,40(s8)
  4033bc:	afc5002c 	sw	a1,44(s8)
  4033c0:	8fc20028 	lw	v0,40(s8)
  4033c4:	8c420000 	lw	v0,0(v0)
  4033c8:	afc20010 	sw	v0,16(s8)
  4033cc:	afc00014 	sw	zero,20(s8)
  4033d0:	100000f3 	b	4037a0 <core_state_transition+0x3f8>
  4033d4:	00000000 	nop
  4033d8:	8fc20010 	lw	v0,16(s8)
  4033dc:	90420000 	lbu	v0,0(v0)
  4033e0:	a3c20018 	sb	v0,24(s8)
  4033e4:	93c30018 	lbu	v1,24(s8)
  4033e8:	2402002c 	li	v0,44
  4033ec:	14620006 	bne	v1,v0,403408 <core_state_transition+0x60>
  4033f0:	00000000 	nop
  4033f4:	8fc20010 	lw	v0,16(s8)
  4033f8:	24420001 	addiu	v0,v0,1
  4033fc:	afc20010 	sw	v0,16(s8)
  403400:	100000ef 	b	4037c0 <core_state_transition+0x418>
  403404:	00000000 	nop
  403408:	8fc20014 	lw	v0,20(s8)
  40340c:	2c420008 	sltiu	v0,v0,8
  403410:	104000df 	beqz	v0,403790 <core_state_transition+0x3e8>
  403414:	00000000 	nop
  403418:	8fc20014 	lw	v0,20(s8)
  40341c:	00021880 	sll	v1,v0,0x2
  403420:	3c020040 	lui	v0,0x40
  403424:	244252f8 	addiu	v0,v0,21240
  403428:	00621021 	addu	v0,v1,v0
  40342c:	8c420000 	lw	v0,0(v0)
  403430:	00400008 	jr	v0
  403434:	00000000 	nop
  403438:	93c20018 	lbu	v0,24(s8)
  40343c:	00402025 	move	a0,v0
  403440:	0c100cd5 	jal	403354 <ee_isdigit>
  403444:	00000000 	nop
  403448:	10400005 	beqz	v0,403460 <core_state_transition+0xb8>
  40344c:	00000000 	nop
  403450:	24020004 	li	v0,4
  403454:	afc20014 	sw	v0,20(s8)
  403458:	1000001c 	b	4034cc <core_state_transition+0x124>
  40345c:	00000000 	nop
  403460:	93c30018 	lbu	v1,24(s8)
  403464:	2402002b 	li	v0,43
  403468:	10620005 	beq	v1,v0,403480 <core_state_transition+0xd8>
  40346c:	00000000 	nop
  403470:	93c30018 	lbu	v1,24(s8)
  403474:	2402002d 	li	v0,45
  403478:	14620005 	bne	v1,v0,403490 <core_state_transition+0xe8>
  40347c:	00000000 	nop
  403480:	24020002 	li	v0,2
  403484:	afc20014 	sw	v0,20(s8)
  403488:	10000010 	b	4034cc <core_state_transition+0x124>
  40348c:	00000000 	nop
  403490:	93c30018 	lbu	v1,24(s8)
  403494:	2402002e 	li	v0,46
  403498:	14620005 	bne	v1,v0,4034b0 <core_state_transition+0x108>
  40349c:	00000000 	nop
  4034a0:	24020005 	li	v0,5
  4034a4:	afc20014 	sw	v0,20(s8)
  4034a8:	10000008 	b	4034cc <core_state_transition+0x124>
  4034ac:	00000000 	nop
  4034b0:	24020001 	li	v0,1
  4034b4:	afc20014 	sw	v0,20(s8)
  4034b8:	8fc2002c 	lw	v0,44(s8)
  4034bc:	24420004 	addiu	v0,v0,4
  4034c0:	8c430000 	lw	v1,0(v0)
  4034c4:	24630001 	addiu	v1,v1,1
  4034c8:	ac430000 	sw	v1,0(v0)
  4034cc:	8fc2002c 	lw	v0,44(s8)
  4034d0:	8c420000 	lw	v0,0(v0)
  4034d4:	24430001 	addiu	v1,v0,1
  4034d8:	8fc2002c 	lw	v0,44(s8)
  4034dc:	ac430000 	sw	v1,0(v0)
  4034e0:	100000ac 	b	403794 <core_state_transition+0x3ec>
  4034e4:	00000000 	nop
  4034e8:	93c20018 	lbu	v0,24(s8)
  4034ec:	00402025 	move	a0,v0
  4034f0:	0c100cd5 	jal	403354 <ee_isdigit>
  4034f4:	00000000 	nop
  4034f8:	1040000a 	beqz	v0,403524 <core_state_transition+0x17c>
  4034fc:	00000000 	nop
  403500:	24020004 	li	v0,4
  403504:	afc20014 	sw	v0,20(s8)
  403508:	8fc2002c 	lw	v0,44(s8)
  40350c:	24420008 	addiu	v0,v0,8
  403510:	8c430000 	lw	v1,0(v0)
  403514:	24630001 	addiu	v1,v1,1
  403518:	ac430000 	sw	v1,0(v0)
  40351c:	10000017 	b	40357c <core_state_transition+0x1d4>
  403520:	00000000 	nop
  403524:	93c30018 	lbu	v1,24(s8)
  403528:	2402002e 	li	v0,46
  40352c:	1462000a 	bne	v1,v0,403558 <core_state_transition+0x1b0>
  403530:	00000000 	nop
  403534:	24020005 	li	v0,5
  403538:	afc20014 	sw	v0,20(s8)
  40353c:	8fc2002c 	lw	v0,44(s8)
  403540:	24420008 	addiu	v0,v0,8
  403544:	8c430000 	lw	v1,0(v0)
  403548:	24630001 	addiu	v1,v1,1
  40354c:	ac430000 	sw	v1,0(v0)
  403550:	1000000a 	b	40357c <core_state_transition+0x1d4>
  403554:	00000000 	nop
  403558:	24020001 	li	v0,1
  40355c:	afc20014 	sw	v0,20(s8)
  403560:	8fc2002c 	lw	v0,44(s8)
  403564:	24420008 	addiu	v0,v0,8
  403568:	8c430000 	lw	v1,0(v0)
  40356c:	24630001 	addiu	v1,v1,1
  403570:	ac430000 	sw	v1,0(v0)
  403574:	10000087 	b	403794 <core_state_transition+0x3ec>
  403578:	00000000 	nop
  40357c:	10000085 	b	403794 <core_state_transition+0x3ec>
  403580:	00000000 	nop
  403584:	93c30018 	lbu	v1,24(s8)
  403588:	2402002e 	li	v0,46
  40358c:	1462000a 	bne	v1,v0,4035b8 <core_state_transition+0x210>
  403590:	00000000 	nop
  403594:	24020005 	li	v0,5
  403598:	afc20014 	sw	v0,20(s8)
  40359c:	8fc2002c 	lw	v0,44(s8)
  4035a0:	24420010 	addiu	v0,v0,16
  4035a4:	8c430000 	lw	v1,0(v0)
  4035a8:	24630001 	addiu	v1,v1,1
  4035ac:	ac430000 	sw	v1,0(v0)
  4035b0:	10000010 	b	4035f4 <core_state_transition+0x24c>
  4035b4:	00000000 	nop
  4035b8:	93c20018 	lbu	v0,24(s8)
  4035bc:	00402025 	move	a0,v0
  4035c0:	0c100cd5 	jal	403354 <ee_isdigit>
  4035c4:	00000000 	nop
  4035c8:	1440000a 	bnez	v0,4035f4 <core_state_transition+0x24c>
  4035cc:	00000000 	nop
  4035d0:	24020001 	li	v0,1
  4035d4:	afc20014 	sw	v0,20(s8)
  4035d8:	8fc2002c 	lw	v0,44(s8)
  4035dc:	24420010 	addiu	v0,v0,16
  4035e0:	8c430000 	lw	v1,0(v0)
  4035e4:	24630001 	addiu	v1,v1,1
  4035e8:	ac430000 	sw	v1,0(v0)
  4035ec:	10000069 	b	403794 <core_state_transition+0x3ec>
  4035f0:	00000000 	nop
  4035f4:	10000067 	b	403794 <core_state_transition+0x3ec>
  4035f8:	00000000 	nop
  4035fc:	93c30018 	lbu	v1,24(s8)
  403600:	24020045 	li	v0,69
  403604:	10620005 	beq	v1,v0,40361c <core_state_transition+0x274>
  403608:	00000000 	nop
  40360c:	93c30018 	lbu	v1,24(s8)
  403610:	24020065 	li	v0,101
  403614:	1462000a 	bne	v1,v0,403640 <core_state_transition+0x298>
  403618:	00000000 	nop
  40361c:	24020003 	li	v0,3
  403620:	afc20014 	sw	v0,20(s8)
  403624:	8fc2002c 	lw	v0,44(s8)
  403628:	24420014 	addiu	v0,v0,20
  40362c:	8c430000 	lw	v1,0(v0)
  403630:	24630001 	addiu	v1,v1,1
  403634:	ac430000 	sw	v1,0(v0)
  403638:	10000010 	b	40367c <core_state_transition+0x2d4>
  40363c:	00000000 	nop
  403640:	93c20018 	lbu	v0,24(s8)
  403644:	00402025 	move	a0,v0
  403648:	0c100cd5 	jal	403354 <ee_isdigit>
  40364c:	00000000 	nop
  403650:	1440000a 	bnez	v0,40367c <core_state_transition+0x2d4>
  403654:	00000000 	nop
  403658:	24020001 	li	v0,1
  40365c:	afc20014 	sw	v0,20(s8)
  403660:	8fc2002c 	lw	v0,44(s8)
  403664:	24420014 	addiu	v0,v0,20
  403668:	8c430000 	lw	v1,0(v0)
  40366c:	24630001 	addiu	v1,v1,1
  403670:	ac430000 	sw	v1,0(v0)
  403674:	10000047 	b	403794 <core_state_transition+0x3ec>
  403678:	00000000 	nop
  40367c:	10000045 	b	403794 <core_state_transition+0x3ec>
  403680:	00000000 	nop
  403684:	93c30018 	lbu	v1,24(s8)
  403688:	2402002b 	li	v0,43
  40368c:	10620005 	beq	v1,v0,4036a4 <core_state_transition+0x2fc>
  403690:	00000000 	nop
  403694:	93c30018 	lbu	v1,24(s8)
  403698:	2402002d 	li	v0,45
  40369c:	1462000a 	bne	v1,v0,4036c8 <core_state_transition+0x320>
  4036a0:	00000000 	nop
  4036a4:	24020006 	li	v0,6
  4036a8:	afc20014 	sw	v0,20(s8)
  4036ac:	8fc2002c 	lw	v0,44(s8)
  4036b0:	2442000c 	addiu	v0,v0,12
  4036b4:	8c430000 	lw	v1,0(v0)
  4036b8:	24630001 	addiu	v1,v1,1
  4036bc:	ac430000 	sw	v1,0(v0)
  4036c0:	10000034 	b	403794 <core_state_transition+0x3ec>
  4036c4:	00000000 	nop
  4036c8:	24020001 	li	v0,1
  4036cc:	afc20014 	sw	v0,20(s8)
  4036d0:	8fc2002c 	lw	v0,44(s8)
  4036d4:	2442000c 	addiu	v0,v0,12
  4036d8:	8c430000 	lw	v1,0(v0)
  4036dc:	24630001 	addiu	v1,v1,1
  4036e0:	ac430000 	sw	v1,0(v0)
  4036e4:	1000002b 	b	403794 <core_state_transition+0x3ec>
  4036e8:	00000000 	nop
  4036ec:	93c20018 	lbu	v0,24(s8)
  4036f0:	00402025 	move	a0,v0
  4036f4:	0c100cd5 	jal	403354 <ee_isdigit>
  4036f8:	00000000 	nop
  4036fc:	1040000a 	beqz	v0,403728 <core_state_transition+0x380>
  403700:	00000000 	nop
  403704:	24020007 	li	v0,7
  403708:	afc20014 	sw	v0,20(s8)
  40370c:	8fc2002c 	lw	v0,44(s8)
  403710:	24420018 	addiu	v0,v0,24
  403714:	8c430000 	lw	v1,0(v0)
  403718:	24630001 	addiu	v1,v1,1
  40371c:	ac430000 	sw	v1,0(v0)
  403720:	1000001c 	b	403794 <core_state_transition+0x3ec>
  403724:	00000000 	nop
  403728:	24020001 	li	v0,1
  40372c:	afc20014 	sw	v0,20(s8)
  403730:	8fc2002c 	lw	v0,44(s8)
  403734:	24420018 	addiu	v0,v0,24
  403738:	8c430000 	lw	v1,0(v0)
  40373c:	24630001 	addiu	v1,v1,1
  403740:	ac430000 	sw	v1,0(v0)
  403744:	10000013 	b	403794 <core_state_transition+0x3ec>
  403748:	00000000 	nop
  40374c:	93c20018 	lbu	v0,24(s8)
  403750:	00402025 	move	a0,v0
  403754:	0c100cd5 	jal	403354 <ee_isdigit>
  403758:	00000000 	nop
  40375c:	1440000a 	bnez	v0,403788 <core_state_transition+0x3e0>
  403760:	00000000 	nop
  403764:	24020001 	li	v0,1
  403768:	afc20014 	sw	v0,20(s8)
  40376c:	8fc2002c 	lw	v0,44(s8)
  403770:	24420004 	addiu	v0,v0,4
  403774:	8c430000 	lw	v1,0(v0)
  403778:	24630001 	addiu	v1,v1,1
  40377c:	ac430000 	sw	v1,0(v0)
  403780:	10000004 	b	403794 <core_state_transition+0x3ec>
  403784:	00000000 	nop
  403788:	10000002 	b	403794 <core_state_transition+0x3ec>
  40378c:	00000000 	nop
  403790:	00000000 	nop
  403794:	8fc20010 	lw	v0,16(s8)
  403798:	24420001 	addiu	v0,v0,1
  40379c:	afc20010 	sw	v0,16(s8)
  4037a0:	8fc20010 	lw	v0,16(s8)
  4037a4:	90420000 	lbu	v0,0(v0)
  4037a8:	10400005 	beqz	v0,4037c0 <core_state_transition+0x418>
  4037ac:	00000000 	nop
  4037b0:	8fc30014 	lw	v1,20(s8)
  4037b4:	24020001 	li	v0,1
  4037b8:	1462ff07 	bne	v1,v0,4033d8 <core_state_transition+0x30>
  4037bc:	00000000 	nop
  4037c0:	8fc20028 	lw	v0,40(s8)
  4037c4:	8fc30010 	lw	v1,16(s8)
  4037c8:	ac430000 	sw	v1,0(v0)
  4037cc:	8fc20014 	lw	v0,20(s8)
  4037d0:	03c0e825 	move	sp,s8
  4037d4:	8fbf0024 	lw	ra,36(sp)
  4037d8:	8fbe0020 	lw	s8,32(sp)
  4037dc:	27bd0028 	addiu	sp,sp,40
  4037e0:	03e00008 	jr	ra
  4037e4:	00000000 	nop

004037e8 <get_seed_32>:
  4037e8:	27bdfff0 	addiu	sp,sp,-16
  4037ec:	afbe000c 	sw	s8,12(sp)
  4037f0:	03a0f025 	move	s8,sp
  4037f4:	afc40010 	sw	a0,16(s8)
  4037f8:	8fc20010 	lw	v0,16(s8)
  4037fc:	2c420006 	sltiu	v0,v0,6
  403800:	1040001d 	beqz	v0,403878 <get_seed_32+0x90>
  403804:	00000000 	nop
  403808:	8fc20010 	lw	v0,16(s8)
  40380c:	00021880 	sll	v1,v0,0x2
  403810:	3c020040 	lui	v0,0x40
  403814:	24425318 	addiu	v0,v0,21272
  403818:	00621021 	addu	v0,v1,v0
  40381c:	8c420000 	lw	v0,0(v0)
  403820:	00400008 	jr	v0
  403824:	00000000 	nop
  403828:	8f828018 	lw	v0,-32744(gp)
  40382c:	afc20000 	sw	v0,0(s8)
  403830:	10000013 	b	403880 <get_seed_32+0x98>
  403834:	00000000 	nop
  403838:	8f82801c 	lw	v0,-32740(gp)
  40383c:	afc20000 	sw	v0,0(s8)
  403840:	1000000f 	b	403880 <get_seed_32+0x98>
  403844:	00000000 	nop
  403848:	8f828004 	lw	v0,-32764(gp)
  40384c:	afc20000 	sw	v0,0(s8)
  403850:	1000000b 	b	403880 <get_seed_32+0x98>
  403854:	00000000 	nop
  403858:	8f828008 	lw	v0,-32760(gp)
  40385c:	afc20000 	sw	v0,0(s8)
  403860:	10000007 	b	403880 <get_seed_32+0x98>
  403864:	00000000 	nop
  403868:	8f828020 	lw	v0,-32736(gp)
  40386c:	afc20000 	sw	v0,0(s8)
  403870:	10000003 	b	403880 <get_seed_32+0x98>
  403874:	00000000 	nop
  403878:	afc00000 	sw	zero,0(s8)
  40387c:	00000000 	nop
  403880:	8fc20000 	lw	v0,0(s8)
  403884:	03c0e825 	move	sp,s8
  403888:	8fbe000c 	lw	s8,12(sp)
  40388c:	27bd0010 	addiu	sp,sp,16
  403890:	03e00008 	jr	ra
  403894:	00000000 	nop

00403898 <crcu8>:
  403898:	27bdfff0 	addiu	sp,sp,-16
  40389c:	afbe000c 	sw	s8,12(sp)
  4038a0:	03a0f025 	move	s8,sp
  4038a4:	00801825 	move	v1,a0
  4038a8:	00a01025 	move	v0,a1
  4038ac:	a3c30010 	sb	v1,16(s8)
  4038b0:	a7c20014 	sh	v0,20(s8)
  4038b4:	a3c00000 	sb	zero,0(s8)
  4038b8:	a3c00002 	sb	zero,2(s8)
  4038bc:	a3c00001 	sb	zero,1(s8)
  4038c0:	a3c00000 	sb	zero,0(s8)
  4038c4:	10000030 	b	403988 <crcu8+0xf0>
  4038c8:	00000000 	nop
  4038cc:	83c20010 	lb	v0,16(s8)
  4038d0:	30420001 	andi	v0,v0,0x1
  4038d4:	00021e00 	sll	v1,v0,0x18
  4038d8:	00031e03 	sra	v1,v1,0x18
  4038dc:	97c20014 	lhu	v0,20(s8)
  4038e0:	00021600 	sll	v0,v0,0x18
  4038e4:	00021603 	sra	v0,v0,0x18
  4038e8:	30420001 	andi	v0,v0,0x1
  4038ec:	00021600 	sll	v0,v0,0x18
  4038f0:	00021603 	sra	v0,v0,0x18
  4038f4:	00621026 	xor	v0,v1,v0
  4038f8:	00021600 	sll	v0,v0,0x18
  4038fc:	00021603 	sra	v0,v0,0x18
  403900:	a3c20002 	sb	v0,2(s8)
  403904:	93c20010 	lbu	v0,16(s8)
  403908:	00021042 	srl	v0,v0,0x1
  40390c:	a3c20010 	sb	v0,16(s8)
  403910:	93c30002 	lbu	v1,2(s8)
  403914:	24020001 	li	v0,1
  403918:	14620008 	bne	v1,v0,40393c <crcu8+0xa4>
  40391c:	00000000 	nop
  403920:	97c20014 	lhu	v0,20(s8)
  403924:	38424002 	xori	v0,v0,0x4002
  403928:	a7c20014 	sh	v0,20(s8)
  40392c:	24020001 	li	v0,1
  403930:	a3c20001 	sb	v0,1(s8)
  403934:	10000002 	b	403940 <crcu8+0xa8>
  403938:	00000000 	nop
  40393c:	a3c00001 	sb	zero,1(s8)
  403940:	97c20014 	lhu	v0,20(s8)
  403944:	00021042 	srl	v0,v0,0x1
  403948:	a7c20014 	sh	v0,20(s8)
  40394c:	93c20001 	lbu	v0,1(s8)
  403950:	10400007 	beqz	v0,403970 <crcu8+0xd8>
  403954:	00000000 	nop
  403958:	97c30014 	lhu	v1,20(s8)
  40395c:	24028000 	li	v0,-32768
  403960:	00621025 	or	v0,v1,v0
  403964:	a7c20014 	sh	v0,20(s8)
  403968:	10000004 	b	40397c <crcu8+0xe4>
  40396c:	00000000 	nop
  403970:	97c20014 	lhu	v0,20(s8)
  403974:	30427fff 	andi	v0,v0,0x7fff
  403978:	a7c20014 	sh	v0,20(s8)
  40397c:	93c20000 	lbu	v0,0(s8)
  403980:	24420001 	addiu	v0,v0,1
  403984:	a3c20000 	sb	v0,0(s8)
  403988:	93c20000 	lbu	v0,0(s8)
  40398c:	2c420008 	sltiu	v0,v0,8
  403990:	1440ffce 	bnez	v0,4038cc <crcu8+0x34>
  403994:	00000000 	nop
  403998:	97c20014 	lhu	v0,20(s8)
  40399c:	03c0e825 	move	sp,s8
  4039a0:	8fbe000c 	lw	s8,12(sp)
  4039a4:	27bd0010 	addiu	sp,sp,16
  4039a8:	03e00008 	jr	ra
  4039ac:	00000000 	nop

004039b0 <crcu16>:
  4039b0:	27bdffe8 	addiu	sp,sp,-24
  4039b4:	afbf0014 	sw	ra,20(sp)
  4039b8:	afbe0010 	sw	s8,16(sp)
  4039bc:	03a0f025 	move	s8,sp
  4039c0:	00801825 	move	v1,a0
  4039c4:	00a01025 	move	v0,a1
  4039c8:	a7c30018 	sh	v1,24(s8)
  4039cc:	a7c2001c 	sh	v0,28(s8)
  4039d0:	97c20018 	lhu	v0,24(s8)
  4039d4:	304200ff 	andi	v0,v0,0xff
  4039d8:	00401825 	move	v1,v0
  4039dc:	97c2001c 	lhu	v0,28(s8)
  4039e0:	00602025 	move	a0,v1
  4039e4:	00402825 	move	a1,v0
  4039e8:	0c100e26 	jal	403898 <crcu8>
  4039ec:	00000000 	nop
  4039f0:	a7c2001c 	sh	v0,28(s8)
  4039f4:	97c20018 	lhu	v0,24(s8)
  4039f8:	00021202 	srl	v0,v0,0x8
  4039fc:	3042ffff 	andi	v0,v0,0xffff
  403a00:	304200ff 	andi	v0,v0,0xff
  403a04:	00401825 	move	v1,v0
  403a08:	97c2001c 	lhu	v0,28(s8)
  403a0c:	00602025 	move	a0,v1
  403a10:	00402825 	move	a1,v0
  403a14:	0c100e26 	jal	403898 <crcu8>
  403a18:	00000000 	nop
  403a1c:	a7c2001c 	sh	v0,28(s8)
  403a20:	97c2001c 	lhu	v0,28(s8)
  403a24:	03c0e825 	move	sp,s8
  403a28:	8fbf0014 	lw	ra,20(sp)
  403a2c:	8fbe0010 	lw	s8,16(sp)
  403a30:	27bd0018 	addiu	sp,sp,24
  403a34:	03e00008 	jr	ra
  403a38:	00000000 	nop

00403a3c <crcu32>:
  403a3c:	27bdffe8 	addiu	sp,sp,-24
  403a40:	afbf0014 	sw	ra,20(sp)
  403a44:	afbe0010 	sw	s8,16(sp)
  403a48:	03a0f025 	move	s8,sp
  403a4c:	afc40018 	sw	a0,24(s8)
  403a50:	00a01025 	move	v0,a1
  403a54:	a7c2001c 	sh	v0,28(s8)
  403a58:	8fc20018 	lw	v0,24(s8)
  403a5c:	00021400 	sll	v0,v0,0x10
  403a60:	00021403 	sra	v0,v0,0x10
  403a64:	00401825 	move	v1,v0
  403a68:	97c2001c 	lhu	v0,28(s8)
  403a6c:	00602025 	move	a0,v1
  403a70:	00402825 	move	a1,v0
  403a74:	0c100eb2 	jal	403ac8 <crc16>
  403a78:	00000000 	nop
  403a7c:	a7c2001c 	sh	v0,28(s8)
  403a80:	8fc20018 	lw	v0,24(s8)
  403a84:	00021402 	srl	v0,v0,0x10
  403a88:	00021400 	sll	v0,v0,0x10
  403a8c:	00021403 	sra	v0,v0,0x10
  403a90:	00401825 	move	v1,v0
  403a94:	97c2001c 	lhu	v0,28(s8)
  403a98:	00602025 	move	a0,v1
  403a9c:	00402825 	move	a1,v0
  403aa0:	0c100eb2 	jal	403ac8 <crc16>
  403aa4:	00000000 	nop
  403aa8:	a7c2001c 	sh	v0,28(s8)
  403aac:	97c2001c 	lhu	v0,28(s8)
  403ab0:	03c0e825 	move	sp,s8
  403ab4:	8fbf0014 	lw	ra,20(sp)
  403ab8:	8fbe0010 	lw	s8,16(sp)
  403abc:	27bd0018 	addiu	sp,sp,24
  403ac0:	03e00008 	jr	ra
  403ac4:	00000000 	nop

00403ac8 <crc16>:
  403ac8:	27bdffe8 	addiu	sp,sp,-24
  403acc:	afbf0014 	sw	ra,20(sp)
  403ad0:	afbe0010 	sw	s8,16(sp)
  403ad4:	03a0f025 	move	s8,sp
  403ad8:	00801825 	move	v1,a0
  403adc:	00a01025 	move	v0,a1
  403ae0:	a7c30018 	sh	v1,24(s8)
  403ae4:	a7c2001c 	sh	v0,28(s8)
  403ae8:	97c20018 	lhu	v0,24(s8)
  403aec:	00401825 	move	v1,v0
  403af0:	97c2001c 	lhu	v0,28(s8)
  403af4:	00602025 	move	a0,v1
  403af8:	00402825 	move	a1,v0
  403afc:	0c100e6c 	jal	4039b0 <crcu16>
  403b00:	00000000 	nop
  403b04:	03c0e825 	move	sp,s8
  403b08:	8fbf0014 	lw	ra,20(sp)
  403b0c:	8fbe0010 	lw	s8,16(sp)
  403b10:	27bd0018 	addiu	sp,sp,24
  403b14:	03e00008 	jr	ra
  403b18:	00000000 	nop

00403b1c <check_data_types>:
  403b1c:	27bdffe0 	addiu	sp,sp,-32
  403b20:	afbf001c 	sw	ra,28(sp)
  403b24:	afbe0018 	sw	s8,24(sp)
  403b28:	03a0f025 	move	s8,sp
  403b2c:	a3c00010 	sb	zero,16(s8)
  403b30:	93c20010 	lbu	v0,16(s8)
  403b34:	10400005 	beqz	v0,403b4c <check_data_types+0x30>
  403b38:	00000000 	nop
  403b3c:	3c020040 	lui	v0,0x40
  403b40:	24445330 	addiu	a0,v0,21296
  403b44:	0c10134f 	jal	404d3c <ee_printf>
  403b48:	00000000 	nop
  403b4c:	93c20010 	lbu	v0,16(s8)
  403b50:	03c0e825 	move	sp,s8
  403b54:	8fbf001c 	lw	ra,28(sp)
  403b58:	8fbe0018 	lw	s8,24(sp)
  403b5c:	27bd0020 	addiu	sp,sp,32
  403b60:	03e00008 	jr	ra
  403b64:	00000000 	nop

00403b68 <strnlen>:
  403b68:	27bdfff0 	addiu	sp,sp,-16
  403b6c:	afbe000c 	sw	s8,12(sp)
  403b70:	03a0f025 	move	s8,sp
  403b74:	afc40010 	sw	a0,16(s8)
  403b78:	afc50014 	sw	a1,20(s8)
  403b7c:	8fc20010 	lw	v0,16(s8)
  403b80:	afc20000 	sw	v0,0(s8)
  403b84:	10000004 	b	403b98 <strnlen+0x30>
  403b88:	00000000 	nop
  403b8c:	8fc20000 	lw	v0,0(s8)
  403b90:	24420001 	addiu	v0,v0,1
  403b94:	afc20000 	sw	v0,0(s8)
  403b98:	8fc20000 	lw	v0,0(s8)
  403b9c:	90420000 	lbu	v0,0(v0)
  403ba0:	10400006 	beqz	v0,403bbc <strnlen+0x54>
  403ba4:	00000000 	nop
  403ba8:	8fc20014 	lw	v0,20(s8)
  403bac:	2443ffff 	addiu	v1,v0,-1
  403bb0:	afc30014 	sw	v1,20(s8)
  403bb4:	1440fff5 	bnez	v0,403b8c <strnlen+0x24>
  403bb8:	00000000 	nop
  403bbc:	8fc30000 	lw	v1,0(s8)
  403bc0:	8fc20010 	lw	v0,16(s8)
  403bc4:	00621023 	subu	v0,v1,v0
  403bc8:	03c0e825 	move	sp,s8
  403bcc:	8fbe000c 	lw	s8,12(sp)
  403bd0:	27bd0010 	addiu	sp,sp,16
  403bd4:	03e00008 	jr	ra
  403bd8:	00000000 	nop

00403bdc <skip_atoi>:
  403bdc:	27bdfff0 	addiu	sp,sp,-16
  403be0:	afbe000c 	sw	s8,12(sp)
  403be4:	03a0f025 	move	s8,sp
  403be8:	afc40010 	sw	a0,16(s8)
  403bec:	afc00000 	sw	zero,0(s8)
  403bf0:	1000000e 	b	403c2c <skip_atoi+0x50>
  403bf4:	00000000 	nop
  403bf8:	8fc20000 	lw	v0,0(s8)
  403bfc:	00021040 	sll	v0,v0,0x1
  403c00:	00021880 	sll	v1,v0,0x2
  403c04:	00431821 	addu	v1,v0,v1
  403c08:	8fc20010 	lw	v0,16(s8)
  403c0c:	8c420000 	lw	v0,0(v0)
  403c10:	24450001 	addiu	a1,v0,1
  403c14:	8fc40010 	lw	a0,16(s8)
  403c18:	ac850000 	sw	a1,0(a0)
  403c1c:	90420000 	lbu	v0,0(v0)
  403c20:	00621021 	addu	v0,v1,v0
  403c24:	2442ffd0 	addiu	v0,v0,-48
  403c28:	afc20000 	sw	v0,0(s8)
  403c2c:	8fc20010 	lw	v0,16(s8)
  403c30:	8c420000 	lw	v0,0(v0)
  403c34:	90420000 	lbu	v0,0(v0)
  403c38:	2c420030 	sltiu	v0,v0,48
  403c3c:	14400007 	bnez	v0,403c5c <skip_atoi+0x80>
  403c40:	00000000 	nop
  403c44:	8fc20010 	lw	v0,16(s8)
  403c48:	8c420000 	lw	v0,0(v0)
  403c4c:	90420000 	lbu	v0,0(v0)
  403c50:	2c42003a 	sltiu	v0,v0,58
  403c54:	1440ffe8 	bnez	v0,403bf8 <skip_atoi+0x1c>
  403c58:	00000000 	nop
  403c5c:	8fc20000 	lw	v0,0(s8)
  403c60:	03c0e825 	move	sp,s8
  403c64:	8fbe000c 	lw	s8,12(sp)
  403c68:	27bd0010 	addiu	sp,sp,16
  403c6c:	03e00008 	jr	ra
  403c70:	00000000 	nop

00403c74 <number>:
  403c74:	27bdffa0 	addiu	sp,sp,-96
  403c78:	afbe005c 	sw	s8,92(sp)
  403c7c:	03a0f025 	move	s8,sp
  403c80:	afc40060 	sw	a0,96(s8)
  403c84:	afc50064 	sw	a1,100(s8)
  403c88:	afc60068 	sw	a2,104(s8)
  403c8c:	afc7006c 	sw	a3,108(s8)
  403c90:	8f828010 	lw	v0,-32752(gp)
  403c94:	afc20004 	sw	v0,4(s8)
  403c98:	8fc20074 	lw	v0,116(s8)
  403c9c:	30420040 	andi	v0,v0,0x40
  403ca0:	10400003 	beqz	v0,403cb0 <number+0x3c>
  403ca4:	00000000 	nop
  403ca8:	8f828014 	lw	v0,-32748(gp)
  403cac:	afc20004 	sw	v0,4(s8)
  403cb0:	8fc20074 	lw	v0,116(s8)
  403cb4:	30420010 	andi	v0,v0,0x10
  403cb8:	10400005 	beqz	v0,403cd0 <number+0x5c>
  403cbc:	00000000 	nop
  403cc0:	8fc30074 	lw	v1,116(s8)
  403cc4:	2402fffe 	li	v0,-2
  403cc8:	00621024 	and	v0,v1,v0
  403ccc:	afc20074 	sw	v0,116(s8)
  403cd0:	8fc20068 	lw	v0,104(s8)
  403cd4:	28420002 	slti	v0,v0,2
  403cd8:	14400005 	bnez	v0,403cf0 <number+0x7c>
  403cdc:	00000000 	nop
  403ce0:	8fc20068 	lw	v0,104(s8)
  403ce4:	28420025 	slti	v0,v0,37
  403ce8:	14400004 	bnez	v0,403cfc <number+0x88>
  403cec:	00000000 	nop
  403cf0:	00001025 	move	v0,zero
  403cf4:	100000e4 	b	404088 <number+0x414>
  403cf8:	00000000 	nop
  403cfc:	8fc20074 	lw	v0,116(s8)
  403d00:	30420001 	andi	v0,v0,0x1
  403d04:	10400004 	beqz	v0,403d18 <number+0xa4>
  403d08:	00000000 	nop
  403d0c:	24020030 	li	v0,48
  403d10:	10000002 	b	403d1c <number+0xa8>
  403d14:	00000000 	nop
  403d18:	24020020 	li	v0,32
  403d1c:	a3c2000c 	sb	v0,12(s8)
  403d20:	a3c00000 	sb	zero,0(s8)
  403d24:	8fc20074 	lw	v0,116(s8)
  403d28:	30420002 	andi	v0,v0,0x2
  403d2c:	10400022 	beqz	v0,403db8 <number+0x144>
  403d30:	00000000 	nop
  403d34:	8fc20064 	lw	v0,100(s8)
  403d38:	0441000b 	bgez	v0,403d68 <number+0xf4>
  403d3c:	00000000 	nop
  403d40:	2402002d 	li	v0,45
  403d44:	a3c20000 	sb	v0,0(s8)
  403d48:	8fc20064 	lw	v0,100(s8)
  403d4c:	00021023 	negu	v0,v0
  403d50:	afc20064 	sw	v0,100(s8)
  403d54:	8fc2006c 	lw	v0,108(s8)
  403d58:	2442ffff 	addiu	v0,v0,-1
  403d5c:	afc2006c 	sw	v0,108(s8)
  403d60:	10000015 	b	403db8 <number+0x144>
  403d64:	00000000 	nop
  403d68:	8fc20074 	lw	v0,116(s8)
  403d6c:	30420004 	andi	v0,v0,0x4
  403d70:	10400008 	beqz	v0,403d94 <number+0x120>
  403d74:	00000000 	nop
  403d78:	2402002b 	li	v0,43
  403d7c:	a3c20000 	sb	v0,0(s8)
  403d80:	8fc2006c 	lw	v0,108(s8)
  403d84:	2442ffff 	addiu	v0,v0,-1
  403d88:	afc2006c 	sw	v0,108(s8)
  403d8c:	1000000a 	b	403db8 <number+0x144>
  403d90:	00000000 	nop
  403d94:	8fc20074 	lw	v0,116(s8)
  403d98:	30420008 	andi	v0,v0,0x8
  403d9c:	10400006 	beqz	v0,403db8 <number+0x144>
  403da0:	00000000 	nop
  403da4:	24020020 	li	v0,32
  403da8:	a3c20000 	sb	v0,0(s8)
  403dac:	8fc2006c 	lw	v0,108(s8)
  403db0:	2442ffff 	addiu	v0,v0,-1
  403db4:	afc2006c 	sw	v0,108(s8)
  403db8:	8fc20074 	lw	v0,116(s8)
  403dbc:	30420020 	andi	v0,v0,0x20
  403dc0:	10400011 	beqz	v0,403e08 <number+0x194>
  403dc4:	00000000 	nop
  403dc8:	8fc30068 	lw	v1,104(s8)
  403dcc:	24020010 	li	v0,16
  403dd0:	14620006 	bne	v1,v0,403dec <number+0x178>
  403dd4:	00000000 	nop
  403dd8:	8fc2006c 	lw	v0,108(s8)
  403ddc:	2442fffe 	addiu	v0,v0,-2
  403de0:	afc2006c 	sw	v0,108(s8)
  403de4:	10000008 	b	403e08 <number+0x194>
  403de8:	00000000 	nop
  403dec:	8fc30068 	lw	v1,104(s8)
  403df0:	24020008 	li	v0,8
  403df4:	14620004 	bne	v1,v0,403e08 <number+0x194>
  403df8:	00000000 	nop
  403dfc:	8fc2006c 	lw	v0,108(s8)
  403e00:	2442ffff 	addiu	v0,v0,-1
  403e04:	afc2006c 	sw	v0,108(s8)
  403e08:	afc00008 	sw	zero,8(s8)
  403e0c:	8fc20064 	lw	v0,100(s8)
  403e10:	14400009 	bnez	v0,403e38 <number+0x1c4>
  403e14:	00000000 	nop
  403e18:	8fc20008 	lw	v0,8(s8)
  403e1c:	24430001 	addiu	v1,v0,1
  403e20:	afc30008 	sw	v1,8(s8)
  403e24:	03c21021 	addu	v0,s8,v0
  403e28:	24030030 	li	v1,48
  403e2c:	a0430010 	sb	v1,16(v0)
  403e30:	1000001b 	b	403ea0 <number+0x22c>
  403e34:	00000000 	nop
  403e38:	10000016 	b	403e94 <number+0x220>
  403e3c:	00000000 	nop
  403e40:	8fc20008 	lw	v0,8(s8)
  403e44:	24430001 	addiu	v1,v0,1
  403e48:	afc30008 	sw	v1,8(s8)
  403e4c:	8fc40064 	lw	a0,100(s8)
  403e50:	8fc30068 	lw	v1,104(s8)
  403e54:	0083001b 	divu	zero,a0,v1
  403e58:	006001f4 	teq	v1,zero,0x7
  403e5c:	00001810 	mfhi	v1
  403e60:	00602025 	move	a0,v1
  403e64:	8fc30004 	lw	v1,4(s8)
  403e68:	00641821 	addu	v1,v1,a0
  403e6c:	90630000 	lbu	v1,0(v1)
  403e70:	03c21021 	addu	v0,s8,v0
  403e74:	a0430010 	sb	v1,16(v0)
  403e78:	8fc30064 	lw	v1,100(s8)
  403e7c:	8fc20068 	lw	v0,104(s8)
  403e80:	0062001b 	divu	zero,v1,v0
  403e84:	004001f4 	teq	v0,zero,0x7
  403e88:	00001010 	mfhi	v0
  403e8c:	00001012 	mflo	v0
  403e90:	afc20064 	sw	v0,100(s8)
  403e94:	8fc20064 	lw	v0,100(s8)
  403e98:	1440ffe9 	bnez	v0,403e40 <number+0x1cc>
  403e9c:	00000000 	nop
  403ea0:	8fc30008 	lw	v1,8(s8)
  403ea4:	8fc20070 	lw	v0,112(s8)
  403ea8:	0043102a 	slt	v0,v0,v1
  403eac:	10400003 	beqz	v0,403ebc <number+0x248>
  403eb0:	00000000 	nop
  403eb4:	8fc20008 	lw	v0,8(s8)
  403eb8:	afc20070 	sw	v0,112(s8)
  403ebc:	8fc3006c 	lw	v1,108(s8)
  403ec0:	8fc20070 	lw	v0,112(s8)
  403ec4:	00621023 	subu	v0,v1,v0
  403ec8:	afc2006c 	sw	v0,108(s8)
  403ecc:	8fc20074 	lw	v0,116(s8)
  403ed0:	30420011 	andi	v0,v0,0x11
  403ed4:	1440000d 	bnez	v0,403f0c <number+0x298>
  403ed8:	00000000 	nop
  403edc:	10000006 	b	403ef8 <number+0x284>
  403ee0:	00000000 	nop
  403ee4:	8fc20060 	lw	v0,96(s8)
  403ee8:	24430001 	addiu	v1,v0,1
  403eec:	afc30060 	sw	v1,96(s8)
  403ef0:	24030020 	li	v1,32
  403ef4:	a0430000 	sb	v1,0(v0)
  403ef8:	8fc2006c 	lw	v0,108(s8)
  403efc:	2443ffff 	addiu	v1,v0,-1
  403f00:	afc3006c 	sw	v1,108(s8)
  403f04:	1c40fff7 	bgtz	v0,403ee4 <number+0x270>
  403f08:	00000000 	nop
  403f0c:	93c20000 	lbu	v0,0(s8)
  403f10:	10400006 	beqz	v0,403f2c <number+0x2b8>
  403f14:	00000000 	nop
  403f18:	8fc20060 	lw	v0,96(s8)
  403f1c:	24430001 	addiu	v1,v0,1
  403f20:	afc30060 	sw	v1,96(s8)
  403f24:	93c30000 	lbu	v1,0(s8)
  403f28:	a0430000 	sb	v1,0(v0)
  403f2c:	8fc20074 	lw	v0,116(s8)
  403f30:	30420020 	andi	v0,v0,0x20
  403f34:	1040001b 	beqz	v0,403fa4 <number+0x330>
  403f38:	00000000 	nop
  403f3c:	8fc30068 	lw	v1,104(s8)
  403f40:	24020008 	li	v0,8
  403f44:	14620008 	bne	v1,v0,403f68 <number+0x2f4>
  403f48:	00000000 	nop
  403f4c:	8fc20060 	lw	v0,96(s8)
  403f50:	24430001 	addiu	v1,v0,1
  403f54:	afc30060 	sw	v1,96(s8)
  403f58:	24030030 	li	v1,48
  403f5c:	a0430000 	sb	v1,0(v0)
  403f60:	10000010 	b	403fa4 <number+0x330>
  403f64:	00000000 	nop
  403f68:	8fc30068 	lw	v1,104(s8)
  403f6c:	24020010 	li	v0,16
  403f70:	1462000c 	bne	v1,v0,403fa4 <number+0x330>
  403f74:	00000000 	nop
  403f78:	8fc20060 	lw	v0,96(s8)
  403f7c:	24430001 	addiu	v1,v0,1
  403f80:	afc30060 	sw	v1,96(s8)
  403f84:	24030030 	li	v1,48
  403f88:	a0430000 	sb	v1,0(v0)
  403f8c:	8fc20060 	lw	v0,96(s8)
  403f90:	24430001 	addiu	v1,v0,1
  403f94:	afc30060 	sw	v1,96(s8)
  403f98:	8f838010 	lw	v1,-32752(gp)
  403f9c:	90630021 	lbu	v1,33(v1)
  403fa0:	a0430000 	sb	v1,0(v0)
  403fa4:	8fc20074 	lw	v0,116(s8)
  403fa8:	30420010 	andi	v0,v0,0x10
  403fac:	1440000d 	bnez	v0,403fe4 <number+0x370>
  403fb0:	00000000 	nop
  403fb4:	10000006 	b	403fd0 <number+0x35c>
  403fb8:	00000000 	nop
  403fbc:	8fc20060 	lw	v0,96(s8)
  403fc0:	24430001 	addiu	v1,v0,1
  403fc4:	afc30060 	sw	v1,96(s8)
  403fc8:	93c3000c 	lbu	v1,12(s8)
  403fcc:	a0430000 	sb	v1,0(v0)
  403fd0:	8fc2006c 	lw	v0,108(s8)
  403fd4:	2443ffff 	addiu	v1,v0,-1
  403fd8:	afc3006c 	sw	v1,108(s8)
  403fdc:	1c40fff7 	bgtz	v0,403fbc <number+0x348>
  403fe0:	00000000 	nop
  403fe4:	10000006 	b	404000 <number+0x38c>
  403fe8:	00000000 	nop
  403fec:	8fc20060 	lw	v0,96(s8)
  403ff0:	24430001 	addiu	v1,v0,1
  403ff4:	afc30060 	sw	v1,96(s8)
  403ff8:	24030030 	li	v1,48
  403ffc:	a0430000 	sb	v1,0(v0)
  404000:	8fc20070 	lw	v0,112(s8)
  404004:	2443ffff 	addiu	v1,v0,-1
  404008:	afc30070 	sw	v1,112(s8)
  40400c:	8fc30008 	lw	v1,8(s8)
  404010:	0062102a 	slt	v0,v1,v0
  404014:	1440fff5 	bnez	v0,403fec <number+0x378>
  404018:	00000000 	nop
  40401c:	10000008 	b	404040 <number+0x3cc>
  404020:	00000000 	nop
  404024:	8fc20060 	lw	v0,96(s8)
  404028:	24430001 	addiu	v1,v0,1
  40402c:	afc30060 	sw	v1,96(s8)
  404030:	8fc30008 	lw	v1,8(s8)
  404034:	03c31821 	addu	v1,s8,v1
  404038:	90630010 	lbu	v1,16(v1)
  40403c:	a0430000 	sb	v1,0(v0)
  404040:	8fc20008 	lw	v0,8(s8)
  404044:	2443ffff 	addiu	v1,v0,-1
  404048:	afc30008 	sw	v1,8(s8)
  40404c:	1c40fff5 	bgtz	v0,404024 <number+0x3b0>
  404050:	00000000 	nop
  404054:	10000006 	b	404070 <number+0x3fc>
  404058:	00000000 	nop
  40405c:	8fc20060 	lw	v0,96(s8)
  404060:	24430001 	addiu	v1,v0,1
  404064:	afc30060 	sw	v1,96(s8)
  404068:	24030020 	li	v1,32
  40406c:	a0430000 	sb	v1,0(v0)
  404070:	8fc2006c 	lw	v0,108(s8)
  404074:	2443ffff 	addiu	v1,v0,-1
  404078:	afc3006c 	sw	v1,108(s8)
  40407c:	1c40fff7 	bgtz	v0,40405c <number+0x3e8>
  404080:	00000000 	nop
  404084:	8fc20060 	lw	v0,96(s8)
  404088:	03c0e825 	move	sp,s8
  40408c:	8fbe005c 	lw	s8,92(sp)
  404090:	27bd0060 	addiu	sp,sp,96
  404094:	03e00008 	jr	ra
  404098:	00000000 	nop

0040409c <eaddr>:
  40409c:	27bdffd0 	addiu	sp,sp,-48
  4040a0:	afbe002c 	sw	s8,44(sp)
  4040a4:	03a0f025 	move	s8,sp
  4040a8:	afc40030 	sw	a0,48(s8)
  4040ac:	afc50034 	sw	a1,52(s8)
  4040b0:	afc60038 	sw	a2,56(s8)
  4040b4:	afc7003c 	sw	a3,60(s8)
  4040b8:	8f828010 	lw	v0,-32752(gp)
  4040bc:	afc20000 	sw	v0,0(s8)
  4040c0:	8fc20040 	lw	v0,64(s8)
  4040c4:	30420040 	andi	v0,v0,0x40
  4040c8:	10400003 	beqz	v0,4040d8 <eaddr+0x3c>
  4040cc:	00000000 	nop
  4040d0:	8f828014 	lw	v0,-32748(gp)
  4040d4:	afc20000 	sw	v0,0(s8)
  4040d8:	afc00008 	sw	zero,8(s8)
  4040dc:	afc00004 	sw	zero,4(s8)
  4040e0:	10000029 	b	404188 <eaddr+0xec>
  4040e4:	00000000 	nop
  4040e8:	8fc20004 	lw	v0,4(s8)
  4040ec:	10400007 	beqz	v0,40410c <eaddr+0x70>
  4040f0:	00000000 	nop
  4040f4:	8fc20008 	lw	v0,8(s8)
  4040f8:	24430001 	addiu	v1,v0,1
  4040fc:	afc30008 	sw	v1,8(s8)
  404100:	03c21021 	addu	v0,s8,v0
  404104:	2403003a 	li	v1,58
  404108:	a043000c 	sb	v1,12(v0)
  40410c:	8fc20008 	lw	v0,8(s8)
  404110:	24430001 	addiu	v1,v0,1
  404114:	afc30008 	sw	v1,8(s8)
  404118:	8fc30004 	lw	v1,4(s8)
  40411c:	8fc40034 	lw	a0,52(s8)
  404120:	00831821 	addu	v1,a0,v1
  404124:	90630000 	lbu	v1,0(v1)
  404128:	00031902 	srl	v1,v1,0x4
  40412c:	306300ff 	andi	v1,v1,0xff
  404130:	00602025 	move	a0,v1
  404134:	8fc30000 	lw	v1,0(s8)
  404138:	00641821 	addu	v1,v1,a0
  40413c:	90630000 	lbu	v1,0(v1)
  404140:	03c21021 	addu	v0,s8,v0
  404144:	a043000c 	sb	v1,12(v0)
  404148:	8fc20008 	lw	v0,8(s8)
  40414c:	24430001 	addiu	v1,v0,1
  404150:	afc30008 	sw	v1,8(s8)
  404154:	8fc30004 	lw	v1,4(s8)
  404158:	8fc40034 	lw	a0,52(s8)
  40415c:	00831821 	addu	v1,a0,v1
  404160:	90630000 	lbu	v1,0(v1)
  404164:	3063000f 	andi	v1,v1,0xf
  404168:	8fc40000 	lw	a0,0(s8)
  40416c:	00831821 	addu	v1,a0,v1
  404170:	90630000 	lbu	v1,0(v1)
  404174:	03c21021 	addu	v0,s8,v0
  404178:	a043000c 	sb	v1,12(v0)
  40417c:	8fc20004 	lw	v0,4(s8)
  404180:	24420001 	addiu	v0,v0,1
  404184:	afc20004 	sw	v0,4(s8)
  404188:	8fc20004 	lw	v0,4(s8)
  40418c:	28420006 	slti	v0,v0,6
  404190:	1440ffd5 	bnez	v0,4040e8 <eaddr+0x4c>
  404194:	00000000 	nop
  404198:	8fc20040 	lw	v0,64(s8)
  40419c:	30420010 	andi	v0,v0,0x10
  4041a0:	1440000f 	bnez	v0,4041e0 <eaddr+0x144>
  4041a4:	00000000 	nop
  4041a8:	10000006 	b	4041c4 <eaddr+0x128>
  4041ac:	00000000 	nop
  4041b0:	8fc20030 	lw	v0,48(s8)
  4041b4:	24430001 	addiu	v1,v0,1
  4041b8:	afc30030 	sw	v1,48(s8)
  4041bc:	24030020 	li	v1,32
  4041c0:	a0430000 	sb	v1,0(v0)
  4041c4:	8fc20038 	lw	v0,56(s8)
  4041c8:	2443ffff 	addiu	v1,v0,-1
  4041cc:	afc30038 	sw	v1,56(s8)
  4041d0:	8fc30008 	lw	v1,8(s8)
  4041d4:	0062102a 	slt	v0,v1,v0
  4041d8:	1440fff5 	bnez	v0,4041b0 <eaddr+0x114>
  4041dc:	00000000 	nop
  4041e0:	afc00004 	sw	zero,4(s8)
  4041e4:	1000000b 	b	404214 <eaddr+0x178>
  4041e8:	00000000 	nop
  4041ec:	8fc20030 	lw	v0,48(s8)
  4041f0:	24430001 	addiu	v1,v0,1
  4041f4:	afc30030 	sw	v1,48(s8)
  4041f8:	8fc30004 	lw	v1,4(s8)
  4041fc:	03c31821 	addu	v1,s8,v1
  404200:	9063000c 	lbu	v1,12(v1)
  404204:	a0430000 	sb	v1,0(v0)
  404208:	8fc20004 	lw	v0,4(s8)
  40420c:	24420001 	addiu	v0,v0,1
  404210:	afc20004 	sw	v0,4(s8)
  404214:	8fc30004 	lw	v1,4(s8)
  404218:	8fc20008 	lw	v0,8(s8)
  40421c:	0062102a 	slt	v0,v1,v0
  404220:	1440fff2 	bnez	v0,4041ec <eaddr+0x150>
  404224:	00000000 	nop
  404228:	10000006 	b	404244 <eaddr+0x1a8>
  40422c:	00000000 	nop
  404230:	8fc20030 	lw	v0,48(s8)
  404234:	24430001 	addiu	v1,v0,1
  404238:	afc30030 	sw	v1,48(s8)
  40423c:	24030020 	li	v1,32
  404240:	a0430000 	sb	v1,0(v0)
  404244:	8fc20038 	lw	v0,56(s8)
  404248:	2443ffff 	addiu	v1,v0,-1
  40424c:	afc30038 	sw	v1,56(s8)
  404250:	8fc30008 	lw	v1,8(s8)
  404254:	0062102a 	slt	v0,v1,v0
  404258:	1440fff5 	bnez	v0,404230 <eaddr+0x194>
  40425c:	00000000 	nop
  404260:	8fc20030 	lw	v0,48(s8)
  404264:	03c0e825 	move	sp,s8
  404268:	8fbe002c 	lw	s8,44(sp)
  40426c:	27bd0030 	addiu	sp,sp,48
  404270:	03e00008 	jr	ra
  404274:	00000000 	nop

00404278 <iaddr>:
  404278:	27bdffd0 	addiu	sp,sp,-48
  40427c:	afbe002c 	sw	s8,44(sp)
  404280:	03a0f025 	move	s8,sp
  404284:	afc40030 	sw	a0,48(s8)
  404288:	afc50034 	sw	a1,52(s8)
  40428c:	afc60038 	sw	a2,56(s8)
  404290:	afc7003c 	sw	a3,60(s8)
  404294:	afc00008 	sw	zero,8(s8)
  404298:	afc00000 	sw	zero,0(s8)
  40429c:	1000008a 	b	4044c8 <iaddr+0x250>
  4042a0:	00000000 	nop
  4042a4:	8fc20000 	lw	v0,0(s8)
  4042a8:	10400007 	beqz	v0,4042c8 <iaddr+0x50>
  4042ac:	00000000 	nop
  4042b0:	8fc20008 	lw	v0,8(s8)
  4042b4:	24430001 	addiu	v1,v0,1
  4042b8:	afc30008 	sw	v1,8(s8)
  4042bc:	03c21021 	addu	v0,s8,v0
  4042c0:	2403002e 	li	v1,46
  4042c4:	a043000c 	sb	v1,12(v0)
  4042c8:	8fc20000 	lw	v0,0(s8)
  4042cc:	8fc30034 	lw	v1,52(s8)
  4042d0:	00621021 	addu	v0,v1,v0
  4042d4:	90420000 	lbu	v0,0(v0)
  4042d8:	afc20004 	sw	v0,4(s8)
  4042dc:	8fc20004 	lw	v0,4(s8)
  4042e0:	1440000a 	bnez	v0,40430c <iaddr+0x94>
  4042e4:	00000000 	nop
  4042e8:	8fc20008 	lw	v0,8(s8)
  4042ec:	24430001 	addiu	v1,v0,1
  4042f0:	afc30008 	sw	v1,8(s8)
  4042f4:	8f838010 	lw	v1,-32752(gp)
  4042f8:	90630000 	lbu	v1,0(v1)
  4042fc:	03c21021 	addu	v0,s8,v0
  404300:	a043000c 	sb	v1,12(v0)
  404304:	1000006d 	b	4044bc <iaddr+0x244>
  404308:	00000000 	nop
  40430c:	8fc20004 	lw	v0,4(s8)
  404310:	28420064 	slti	v0,v0,100
  404314:	1440003f 	bnez	v0,404414 <iaddr+0x19c>
  404318:	00000000 	nop
  40431c:	8fc20008 	lw	v0,8(s8)
  404320:	24430001 	addiu	v1,v0,1
  404324:	afc30008 	sw	v1,8(s8)
  404328:	8f848010 	lw	a0,-32752(gp)
  40432c:	8fc30004 	lw	v1,4(s8)
  404330:	3c0551eb 	lui	a1,0x51eb
  404334:	34a5851f 	ori	a1,a1,0x851f
  404338:	00650018 	mult	v1,a1
  40433c:	00002810 	mfhi	a1
  404340:	00052943 	sra	a1,a1,0x5
  404344:	00031fc3 	sra	v1,v1,0x1f
  404348:	00a31823 	subu	v1,a1,v1
  40434c:	00831821 	addu	v1,a0,v1
  404350:	90630000 	lbu	v1,0(v1)
  404354:	03c21021 	addu	v0,s8,v0
  404358:	a043000c 	sb	v1,12(v0)
  40435c:	8fc30004 	lw	v1,4(s8)
  404360:	3c0251eb 	lui	v0,0x51eb
  404364:	3442851f 	ori	v0,v0,0x851f
  404368:	00620018 	mult	v1,v0
  40436c:	00001010 	mfhi	v0
  404370:	00022143 	sra	a0,v0,0x5
  404374:	000317c3 	sra	v0,v1,0x1f
  404378:	00821023 	subu	v0,a0,v0
  40437c:	00021080 	sll	v0,v0,0x2
  404380:	00022080 	sll	a0,v0,0x2
  404384:	00441021 	addu	v0,v0,a0
  404388:	00022080 	sll	a0,v0,0x2
  40438c:	00441021 	addu	v0,v0,a0
  404390:	00621023 	subu	v0,v1,v0
  404394:	afc20004 	sw	v0,4(s8)
  404398:	8fc20008 	lw	v0,8(s8)
  40439c:	24430001 	addiu	v1,v0,1
  4043a0:	afc30008 	sw	v1,8(s8)
  4043a4:	8f848010 	lw	a0,-32752(gp)
  4043a8:	8fc30004 	lw	v1,4(s8)
  4043ac:	3c056666 	lui	a1,0x6666
  4043b0:	34a56667 	ori	a1,a1,0x6667
  4043b4:	00650018 	mult	v1,a1
  4043b8:	00002810 	mfhi	a1
  4043bc:	00052883 	sra	a1,a1,0x2
  4043c0:	00031fc3 	sra	v1,v1,0x1f
  4043c4:	00a31823 	subu	v1,a1,v1
  4043c8:	00831821 	addu	v1,a0,v1
  4043cc:	90630000 	lbu	v1,0(v1)
  4043d0:	03c21021 	addu	v0,s8,v0
  4043d4:	a043000c 	sb	v1,12(v0)
  4043d8:	8fc30004 	lw	v1,4(s8)
  4043dc:	3c026666 	lui	v0,0x6666
  4043e0:	34426667 	ori	v0,v0,0x6667
  4043e4:	00620018 	mult	v1,v0
  4043e8:	00001010 	mfhi	v0
  4043ec:	00022083 	sra	a0,v0,0x2
  4043f0:	000317c3 	sra	v0,v1,0x1f
  4043f4:	00821023 	subu	v0,a0,v0
  4043f8:	00021040 	sll	v0,v0,0x1
  4043fc:	00022080 	sll	a0,v0,0x2
  404400:	00441021 	addu	v0,v0,a0
  404404:	00621023 	subu	v0,v1,v0
  404408:	afc20004 	sw	v0,4(s8)
  40440c:	10000022 	b	404498 <iaddr+0x220>
  404410:	00000000 	nop
  404414:	8fc20004 	lw	v0,4(s8)
  404418:	2842000a 	slti	v0,v0,10
  40441c:	1440001e 	bnez	v0,404498 <iaddr+0x220>
  404420:	00000000 	nop
  404424:	8fc20008 	lw	v0,8(s8)
  404428:	24430001 	addiu	v1,v0,1
  40442c:	afc30008 	sw	v1,8(s8)
  404430:	8f848010 	lw	a0,-32752(gp)
  404434:	8fc30004 	lw	v1,4(s8)
  404438:	3c056666 	lui	a1,0x6666
  40443c:	34a56667 	ori	a1,a1,0x6667
  404440:	00650018 	mult	v1,a1
  404444:	00002810 	mfhi	a1
  404448:	00052883 	sra	a1,a1,0x2
  40444c:	00031fc3 	sra	v1,v1,0x1f
  404450:	00a31823 	subu	v1,a1,v1
  404454:	00831821 	addu	v1,a0,v1
  404458:	90630000 	lbu	v1,0(v1)
  40445c:	03c21021 	addu	v0,s8,v0
  404460:	a043000c 	sb	v1,12(v0)
  404464:	8fc30004 	lw	v1,4(s8)
  404468:	3c026666 	lui	v0,0x6666
  40446c:	34426667 	ori	v0,v0,0x6667
  404470:	00620018 	mult	v1,v0
  404474:	00001010 	mfhi	v0
  404478:	00022083 	sra	a0,v0,0x2
  40447c:	000317c3 	sra	v0,v1,0x1f
  404480:	00821023 	subu	v0,a0,v0
  404484:	00021040 	sll	v0,v0,0x1
  404488:	00022080 	sll	a0,v0,0x2
  40448c:	00441021 	addu	v0,v0,a0
  404490:	00621023 	subu	v0,v1,v0
  404494:	afc20004 	sw	v0,4(s8)
  404498:	8fc20008 	lw	v0,8(s8)
  40449c:	24430001 	addiu	v1,v0,1
  4044a0:	afc30008 	sw	v1,8(s8)
  4044a4:	8f848010 	lw	a0,-32752(gp)
  4044a8:	8fc30004 	lw	v1,4(s8)
  4044ac:	00831821 	addu	v1,a0,v1
  4044b0:	90630000 	lbu	v1,0(v1)
  4044b4:	03c21021 	addu	v0,s8,v0
  4044b8:	a043000c 	sb	v1,12(v0)
  4044bc:	8fc20000 	lw	v0,0(s8)
  4044c0:	24420001 	addiu	v0,v0,1
  4044c4:	afc20000 	sw	v0,0(s8)
  4044c8:	8fc20000 	lw	v0,0(s8)
  4044cc:	28420004 	slti	v0,v0,4
  4044d0:	1440ff74 	bnez	v0,4042a4 <iaddr+0x2c>
  4044d4:	00000000 	nop
  4044d8:	8fc20040 	lw	v0,64(s8)
  4044dc:	30420010 	andi	v0,v0,0x10
  4044e0:	1440000f 	bnez	v0,404520 <iaddr+0x2a8>
  4044e4:	00000000 	nop
  4044e8:	10000006 	b	404504 <iaddr+0x28c>
  4044ec:	00000000 	nop
  4044f0:	8fc20030 	lw	v0,48(s8)
  4044f4:	24430001 	addiu	v1,v0,1
  4044f8:	afc30030 	sw	v1,48(s8)
  4044fc:	24030020 	li	v1,32
  404500:	a0430000 	sb	v1,0(v0)
  404504:	8fc20038 	lw	v0,56(s8)
  404508:	2443ffff 	addiu	v1,v0,-1
  40450c:	afc30038 	sw	v1,56(s8)
  404510:	8fc30008 	lw	v1,8(s8)
  404514:	0062102a 	slt	v0,v1,v0
  404518:	1440fff5 	bnez	v0,4044f0 <iaddr+0x278>
  40451c:	00000000 	nop
  404520:	afc00000 	sw	zero,0(s8)
  404524:	1000000b 	b	404554 <iaddr+0x2dc>
  404528:	00000000 	nop
  40452c:	8fc20030 	lw	v0,48(s8)
  404530:	24430001 	addiu	v1,v0,1
  404534:	afc30030 	sw	v1,48(s8)
  404538:	8fc30000 	lw	v1,0(s8)
  40453c:	03c31821 	addu	v1,s8,v1
  404540:	9063000c 	lbu	v1,12(v1)
  404544:	a0430000 	sb	v1,0(v0)
  404548:	8fc20000 	lw	v0,0(s8)
  40454c:	24420001 	addiu	v0,v0,1
  404550:	afc20000 	sw	v0,0(s8)
  404554:	8fc30000 	lw	v1,0(s8)
  404558:	8fc20008 	lw	v0,8(s8)
  40455c:	0062102a 	slt	v0,v1,v0
  404560:	1440fff2 	bnez	v0,40452c <iaddr+0x2b4>
  404564:	00000000 	nop
  404568:	10000006 	b	404584 <iaddr+0x30c>
  40456c:	00000000 	nop
  404570:	8fc20030 	lw	v0,48(s8)
  404574:	24430001 	addiu	v1,v0,1
  404578:	afc30030 	sw	v1,48(s8)
  40457c:	24030020 	li	v1,32
  404580:	a0430000 	sb	v1,0(v0)
  404584:	8fc20038 	lw	v0,56(s8)
  404588:	2443ffff 	addiu	v1,v0,-1
  40458c:	afc30038 	sw	v1,56(s8)
  404590:	8fc30008 	lw	v1,8(s8)
  404594:	0062102a 	slt	v0,v1,v0
  404598:	1440fff5 	bnez	v0,404570 <iaddr+0x2f8>
  40459c:	00000000 	nop
  4045a0:	8fc20030 	lw	v0,48(s8)
  4045a4:	03c0e825 	move	sp,s8
  4045a8:	8fbe002c 	lw	s8,44(sp)
  4045ac:	27bd0030 	addiu	sp,sp,48
  4045b0:	03e00008 	jr	ra
  4045b4:	00000000 	nop

004045b8 <ee_vsprintf>:
  4045b8:	27bdffb8 	addiu	sp,sp,-72
  4045bc:	afbf0044 	sw	ra,68(sp)
  4045c0:	afbe0040 	sw	s8,64(sp)
  4045c4:	03a0f025 	move	s8,sp
  4045c8:	afc40048 	sw	a0,72(s8)
  4045cc:	afc5004c 	sw	a1,76(s8)
  4045d0:	afc60050 	sw	a2,80(s8)
  4045d4:	8fc20048 	lw	v0,72(s8)
  4045d8:	afc20024 	sw	v0,36(s8)
  4045dc:	100001b3 	b	404cac <ee_vsprintf+0x6f4>
  4045e0:	00000000 	nop
  4045e4:	8fc2004c 	lw	v0,76(s8)
  4045e8:	90430000 	lbu	v1,0(v0)
  4045ec:	24020025 	li	v0,37
  4045f0:	10620009 	beq	v1,v0,404618 <ee_vsprintf+0x60>
  4045f4:	00000000 	nop
  4045f8:	8fc20024 	lw	v0,36(s8)
  4045fc:	24430001 	addiu	v1,v0,1
  404600:	afc30024 	sw	v1,36(s8)
  404604:	8fc3004c 	lw	v1,76(s8)
  404608:	90630000 	lbu	v1,0(v1)
  40460c:	a0430000 	sb	v1,0(v0)
  404610:	100001a3 	b	404ca0 <ee_vsprintf+0x6e8>
  404614:	00000000 	nop
  404618:	afc0002c 	sw	zero,44(s8)
  40461c:	8fc2004c 	lw	v0,76(s8)
  404620:	24420001 	addiu	v0,v0,1
  404624:	afc2004c 	sw	v0,76(s8)
  404628:	8fc2004c 	lw	v0,76(s8)
  40462c:	90420000 	lbu	v0,0(v0)
  404630:	2442ffe0 	addiu	v0,v0,-32
  404634:	2c430011 	sltiu	v1,v0,17
  404638:	10600021 	beqz	v1,4046c0 <ee_vsprintf+0x108>
  40463c:	00000000 	nop
  404640:	00021880 	sll	v1,v0,0x2
  404644:	3c020040 	lui	v0,0x40
  404648:	244253c0 	addiu	v0,v0,21440
  40464c:	00621021 	addu	v0,v1,v0
  404650:	8c420000 	lw	v0,0(v0)
  404654:	00400008 	jr	v0
  404658:	00000000 	nop
  40465c:	8fc2002c 	lw	v0,44(s8)
  404660:	34420010 	ori	v0,v0,0x10
  404664:	afc2002c 	sw	v0,44(s8)
  404668:	1000ffec 	b	40461c <ee_vsprintf+0x64>
  40466c:	00000000 	nop
  404670:	8fc2002c 	lw	v0,44(s8)
  404674:	34420004 	ori	v0,v0,0x4
  404678:	afc2002c 	sw	v0,44(s8)
  40467c:	1000ffe7 	b	40461c <ee_vsprintf+0x64>
  404680:	00000000 	nop
  404684:	8fc2002c 	lw	v0,44(s8)
  404688:	34420008 	ori	v0,v0,0x8
  40468c:	afc2002c 	sw	v0,44(s8)
  404690:	1000ffe2 	b	40461c <ee_vsprintf+0x64>
  404694:	00000000 	nop
  404698:	8fc2002c 	lw	v0,44(s8)
  40469c:	34420020 	ori	v0,v0,0x20
  4046a0:	afc2002c 	sw	v0,44(s8)
  4046a4:	1000ffdd 	b	40461c <ee_vsprintf+0x64>
  4046a8:	00000000 	nop
  4046ac:	8fc2002c 	lw	v0,44(s8)
  4046b0:	34420001 	ori	v0,v0,0x1
  4046b4:	afc2002c 	sw	v0,44(s8)
  4046b8:	1000ffd8 	b	40461c <ee_vsprintf+0x64>
  4046bc:	00000000 	nop
  4046c0:	2402ffff 	li	v0,-1
  4046c4:	afc20030 	sw	v0,48(s8)
  4046c8:	8fc2004c 	lw	v0,76(s8)
  4046cc:	90420000 	lbu	v0,0(v0)
  4046d0:	2c420030 	sltiu	v0,v0,48
  4046d4:	1440000d 	bnez	v0,40470c <ee_vsprintf+0x154>
  4046d8:	00000000 	nop
  4046dc:	8fc2004c 	lw	v0,76(s8)
  4046e0:	90420000 	lbu	v0,0(v0)
  4046e4:	2c42003a 	sltiu	v0,v0,58
  4046e8:	10400008 	beqz	v0,40470c <ee_vsprintf+0x154>
  4046ec:	00000000 	nop
  4046f0:	27c2004c 	addiu	v0,s8,76
  4046f4:	00402025 	move	a0,v0
  4046f8:	0c100ef7 	jal	403bdc <skip_atoi>
  4046fc:	00000000 	nop
  404700:	afc20030 	sw	v0,48(s8)
  404704:	10000017 	b	404764 <ee_vsprintf+0x1ac>
  404708:	00000000 	nop
  40470c:	8fc2004c 	lw	v0,76(s8)
  404710:	90430000 	lbu	v1,0(v0)
  404714:	2402002a 	li	v0,42
  404718:	14620012 	bne	v1,v0,404764 <ee_vsprintf+0x1ac>
  40471c:	00000000 	nop
  404720:	8fc2004c 	lw	v0,76(s8)
  404724:	24420001 	addiu	v0,v0,1
  404728:	afc2004c 	sw	v0,76(s8)
  40472c:	8fc20050 	lw	v0,80(s8)
  404730:	24430004 	addiu	v1,v0,4
  404734:	afc30050 	sw	v1,80(s8)
  404738:	8c420000 	lw	v0,0(v0)
  40473c:	afc20030 	sw	v0,48(s8)
  404740:	8fc20030 	lw	v0,48(s8)
  404744:	04410007 	bgez	v0,404764 <ee_vsprintf+0x1ac>
  404748:	00000000 	nop
  40474c:	8fc20030 	lw	v0,48(s8)
  404750:	00021023 	negu	v0,v0
  404754:	afc20030 	sw	v0,48(s8)
  404758:	8fc2002c 	lw	v0,44(s8)
  40475c:	34420010 	ori	v0,v0,0x10
  404760:	afc2002c 	sw	v0,44(s8)
  404764:	2402ffff 	li	v0,-1
  404768:	afc20034 	sw	v0,52(s8)
  40476c:	8fc2004c 	lw	v0,76(s8)
  404770:	90430000 	lbu	v1,0(v0)
  404774:	2402002e 	li	v0,46
  404778:	14620026 	bne	v1,v0,404814 <ee_vsprintf+0x25c>
  40477c:	00000000 	nop
  404780:	8fc2004c 	lw	v0,76(s8)
  404784:	24420001 	addiu	v0,v0,1
  404788:	afc2004c 	sw	v0,76(s8)
  40478c:	8fc2004c 	lw	v0,76(s8)
  404790:	90420000 	lbu	v0,0(v0)
  404794:	2c420030 	sltiu	v0,v0,48
  404798:	1440000d 	bnez	v0,4047d0 <ee_vsprintf+0x218>
  40479c:	00000000 	nop
  4047a0:	8fc2004c 	lw	v0,76(s8)
  4047a4:	90420000 	lbu	v0,0(v0)
  4047a8:	2c42003a 	sltiu	v0,v0,58
  4047ac:	10400008 	beqz	v0,4047d0 <ee_vsprintf+0x218>
  4047b0:	00000000 	nop
  4047b4:	27c2004c 	addiu	v0,s8,76
  4047b8:	00402025 	move	a0,v0
  4047bc:	0c100ef7 	jal	403bdc <skip_atoi>
  4047c0:	00000000 	nop
  4047c4:	afc20034 	sw	v0,52(s8)
  4047c8:	1000000e 	b	404804 <ee_vsprintf+0x24c>
  4047cc:	00000000 	nop
  4047d0:	8fc2004c 	lw	v0,76(s8)
  4047d4:	90430000 	lbu	v1,0(v0)
  4047d8:	2402002a 	li	v0,42
  4047dc:	14620009 	bne	v1,v0,404804 <ee_vsprintf+0x24c>
  4047e0:	00000000 	nop
  4047e4:	8fc2004c 	lw	v0,76(s8)
  4047e8:	24420001 	addiu	v0,v0,1
  4047ec:	afc2004c 	sw	v0,76(s8)
  4047f0:	8fc20050 	lw	v0,80(s8)
  4047f4:	24430004 	addiu	v1,v0,4
  4047f8:	afc30050 	sw	v1,80(s8)
  4047fc:	8c420000 	lw	v0,0(v0)
  404800:	afc20034 	sw	v0,52(s8)
  404804:	8fc20034 	lw	v0,52(s8)
  404808:	04410002 	bgez	v0,404814 <ee_vsprintf+0x25c>
  40480c:	00000000 	nop
  404810:	afc00034 	sw	zero,52(s8)
  404814:	2402ffff 	li	v0,-1
  404818:	afc20038 	sw	v0,56(s8)
  40481c:	8fc2004c 	lw	v0,76(s8)
  404820:	90430000 	lbu	v1,0(v0)
  404824:	2402006c 	li	v0,108
  404828:	10620006 	beq	v1,v0,404844 <ee_vsprintf+0x28c>
  40482c:	00000000 	nop
  404830:	8fc2004c 	lw	v0,76(s8)
  404834:	90430000 	lbu	v1,0(v0)
  404838:	2402004c 	li	v0,76
  40483c:	14620007 	bne	v1,v0,40485c <ee_vsprintf+0x2a4>
  404840:	00000000 	nop
  404844:	8fc2004c 	lw	v0,76(s8)
  404848:	90420000 	lbu	v0,0(v0)
  40484c:	afc20038 	sw	v0,56(s8)
  404850:	8fc2004c 	lw	v0,76(s8)
  404854:	24420001 	addiu	v0,v0,1
  404858:	afc2004c 	sw	v0,76(s8)
  40485c:	2402000a 	li	v0,10
  404860:	afc20020 	sw	v0,32(s8)
  404864:	8fc2004c 	lw	v0,76(s8)
  404868:	90420000 	lbu	v0,0(v0)
  40486c:	2442ffbf 	addiu	v0,v0,-65
  404870:	2c430038 	sltiu	v1,v0,56
  404874:	106000c7 	beqz	v1,404b94 <ee_vsprintf+0x5dc>
  404878:	00000000 	nop
  40487c:	00021880 	sll	v1,v0,0x2
  404880:	3c020040 	lui	v0,0x40
  404884:	24425404 	addiu	v0,v0,21508
  404888:	00621021 	addu	v0,v1,v0
  40488c:	8c420000 	lw	v0,0(v0)
  404890:	00400008 	jr	v0
  404894:	00000000 	nop
  404898:	8fc2002c 	lw	v0,44(s8)
  40489c:	30420010 	andi	v0,v0,0x10
  4048a0:	1440000e 	bnez	v0,4048dc <ee_vsprintf+0x324>
  4048a4:	00000000 	nop
  4048a8:	10000006 	b	4048c4 <ee_vsprintf+0x30c>
  4048ac:	00000000 	nop
  4048b0:	8fc20024 	lw	v0,36(s8)
  4048b4:	24430001 	addiu	v1,v0,1
  4048b8:	afc30024 	sw	v1,36(s8)
  4048bc:	24030020 	li	v1,32
  4048c0:	a0430000 	sb	v1,0(v0)
  4048c4:	8fc20030 	lw	v0,48(s8)
  4048c8:	2442ffff 	addiu	v0,v0,-1
  4048cc:	afc20030 	sw	v0,48(s8)
  4048d0:	8fc20030 	lw	v0,48(s8)
  4048d4:	1c40fff6 	bgtz	v0,4048b0 <ee_vsprintf+0x2f8>
  4048d8:	00000000 	nop
  4048dc:	8fc20024 	lw	v0,36(s8)
  4048e0:	24430001 	addiu	v1,v0,1
  4048e4:	afc30024 	sw	v1,36(s8)
  4048e8:	8fc30050 	lw	v1,80(s8)
  4048ec:	24640004 	addiu	a0,v1,4
  4048f0:	afc40050 	sw	a0,80(s8)
  4048f4:	8c630000 	lw	v1,0(v1)
  4048f8:	306300ff 	andi	v1,v1,0xff
  4048fc:	a0430000 	sb	v1,0(v0)
  404900:	10000006 	b	40491c <ee_vsprintf+0x364>
  404904:	00000000 	nop
  404908:	8fc20024 	lw	v0,36(s8)
  40490c:	24430001 	addiu	v1,v0,1
  404910:	afc30024 	sw	v1,36(s8)
  404914:	24030020 	li	v1,32
  404918:	a0430000 	sb	v1,0(v0)
  40491c:	8fc20030 	lw	v0,48(s8)
  404920:	2442ffff 	addiu	v0,v0,-1
  404924:	afc20030 	sw	v0,48(s8)
  404928:	8fc20030 	lw	v0,48(s8)
  40492c:	1c40fff6 	bgtz	v0,404908 <ee_vsprintf+0x350>
  404930:	00000000 	nop
  404934:	100000da 	b	404ca0 <ee_vsprintf+0x6e8>
  404938:	00000000 	nop
  40493c:	8fc20050 	lw	v0,80(s8)
  404940:	24430004 	addiu	v1,v0,4
  404944:	afc30050 	sw	v1,80(s8)
  404948:	8c420000 	lw	v0,0(v0)
  40494c:	afc20028 	sw	v0,40(s8)
  404950:	8fc20028 	lw	v0,40(s8)
  404954:	14400004 	bnez	v0,404968 <ee_vsprintf+0x3b0>
  404958:	00000000 	nop
  40495c:	3c020040 	lui	v0,0x40
  404960:	244253b8 	addiu	v0,v0,21432
  404964:	afc20028 	sw	v0,40(s8)
  404968:	8fc20034 	lw	v0,52(s8)
  40496c:	8fc40028 	lw	a0,40(s8)
  404970:	00402825 	move	a1,v0
  404974:	0c100eda 	jal	403b68 <strnlen>
  404978:	00000000 	nop
  40497c:	afc2003c 	sw	v0,60(s8)
  404980:	8fc2002c 	lw	v0,44(s8)
  404984:	30420010 	andi	v0,v0,0x10
  404988:	1440000f 	bnez	v0,4049c8 <ee_vsprintf+0x410>
  40498c:	00000000 	nop
  404990:	10000006 	b	4049ac <ee_vsprintf+0x3f4>
  404994:	00000000 	nop
  404998:	8fc20024 	lw	v0,36(s8)
  40499c:	24430001 	addiu	v1,v0,1
  4049a0:	afc30024 	sw	v1,36(s8)
  4049a4:	24030020 	li	v1,32
  4049a8:	a0430000 	sb	v1,0(v0)
  4049ac:	8fc20030 	lw	v0,48(s8)
  4049b0:	2443ffff 	addiu	v1,v0,-1
  4049b4:	afc30030 	sw	v1,48(s8)
  4049b8:	8fc3003c 	lw	v1,60(s8)
  4049bc:	0062102a 	slt	v0,v1,v0
  4049c0:	1440fff5 	bnez	v0,404998 <ee_vsprintf+0x3e0>
  4049c4:	00000000 	nop
  4049c8:	afc0001c 	sw	zero,28(s8)
  4049cc:	1000000c 	b	404a00 <ee_vsprintf+0x448>
  4049d0:	00000000 	nop
  4049d4:	8fc20024 	lw	v0,36(s8)
  4049d8:	24430001 	addiu	v1,v0,1
  4049dc:	afc30024 	sw	v1,36(s8)
  4049e0:	8fc30028 	lw	v1,40(s8)
  4049e4:	24640001 	addiu	a0,v1,1
  4049e8:	afc40028 	sw	a0,40(s8)
  4049ec:	90630000 	lbu	v1,0(v1)
  4049f0:	a0430000 	sb	v1,0(v0)
  4049f4:	8fc2001c 	lw	v0,28(s8)
  4049f8:	24420001 	addiu	v0,v0,1
  4049fc:	afc2001c 	sw	v0,28(s8)
  404a00:	8fc3001c 	lw	v1,28(s8)
  404a04:	8fc2003c 	lw	v0,60(s8)
  404a08:	0062102a 	slt	v0,v1,v0
  404a0c:	1440fff1 	bnez	v0,4049d4 <ee_vsprintf+0x41c>
  404a10:	00000000 	nop
  404a14:	10000006 	b	404a30 <ee_vsprintf+0x478>
  404a18:	00000000 	nop
  404a1c:	8fc20024 	lw	v0,36(s8)
  404a20:	24430001 	addiu	v1,v0,1
  404a24:	afc30024 	sw	v1,36(s8)
  404a28:	24030020 	li	v1,32
  404a2c:	a0430000 	sb	v1,0(v0)
  404a30:	8fc20030 	lw	v0,48(s8)
  404a34:	2443ffff 	addiu	v1,v0,-1
  404a38:	afc30030 	sw	v1,48(s8)
  404a3c:	8fc3003c 	lw	v1,60(s8)
  404a40:	0062102a 	slt	v0,v1,v0
  404a44:	1440fff5 	bnez	v0,404a1c <ee_vsprintf+0x464>
  404a48:	00000000 	nop
  404a4c:	10000094 	b	404ca0 <ee_vsprintf+0x6e8>
  404a50:	00000000 	nop
  404a54:	8fc30030 	lw	v1,48(s8)
  404a58:	2402ffff 	li	v0,-1
  404a5c:	14620006 	bne	v1,v0,404a78 <ee_vsprintf+0x4c0>
  404a60:	00000000 	nop
  404a64:	24020008 	li	v0,8
  404a68:	afc20030 	sw	v0,48(s8)
  404a6c:	8fc2002c 	lw	v0,44(s8)
  404a70:	34420001 	ori	v0,v0,0x1
  404a74:	afc2002c 	sw	v0,44(s8)
  404a78:	8fc20050 	lw	v0,80(s8)
  404a7c:	24430004 	addiu	v1,v0,4
  404a80:	afc30050 	sw	v1,80(s8)
  404a84:	8c420000 	lw	v0,0(v0)
  404a88:	00401825 	move	v1,v0
  404a8c:	8fc20034 	lw	v0,52(s8)
  404a90:	afa20010 	sw	v0,16(sp)
  404a94:	8fc2002c 	lw	v0,44(s8)
  404a98:	afa20014 	sw	v0,20(sp)
  404a9c:	8fc40024 	lw	a0,36(s8)
  404aa0:	00602825 	move	a1,v1
  404aa4:	24060010 	li	a2,16
  404aa8:	8fc70030 	lw	a3,48(s8)
  404aac:	0c100f1d 	jal	403c74 <number>
  404ab0:	00000000 	nop
  404ab4:	afc20024 	sw	v0,36(s8)
  404ab8:	10000079 	b	404ca0 <ee_vsprintf+0x6e8>
  404abc:	00000000 	nop
  404ac0:	8fc2002c 	lw	v0,44(s8)
  404ac4:	34420040 	ori	v0,v0,0x40
  404ac8:	afc2002c 	sw	v0,44(s8)
  404acc:	8fc30038 	lw	v1,56(s8)
  404ad0:	2402006c 	li	v0,108
  404ad4:	14620010 	bne	v1,v0,404b18 <ee_vsprintf+0x560>
  404ad8:	00000000 	nop
  404adc:	8fc20050 	lw	v0,80(s8)
  404ae0:	24430004 	addiu	v1,v0,4
  404ae4:	afc30050 	sw	v1,80(s8)
  404ae8:	8c430000 	lw	v1,0(v0)
  404aec:	8fc2002c 	lw	v0,44(s8)
  404af0:	afa20010 	sw	v0,16(sp)
  404af4:	8fc40024 	lw	a0,36(s8)
  404af8:	00602825 	move	a1,v1
  404afc:	8fc60030 	lw	a2,48(s8)
  404b00:	8fc70034 	lw	a3,52(s8)
  404b04:	0c101027 	jal	40409c <eaddr>
  404b08:	00000000 	nop
  404b0c:	afc20024 	sw	v0,36(s8)
  404b10:	10000063 	b	404ca0 <ee_vsprintf+0x6e8>
  404b14:	00000000 	nop
  404b18:	8fc20050 	lw	v0,80(s8)
  404b1c:	24430004 	addiu	v1,v0,4
  404b20:	afc30050 	sw	v1,80(s8)
  404b24:	8c430000 	lw	v1,0(v0)
  404b28:	8fc2002c 	lw	v0,44(s8)
  404b2c:	afa20010 	sw	v0,16(sp)
  404b30:	8fc40024 	lw	a0,36(s8)
  404b34:	00602825 	move	a1,v1
  404b38:	8fc60030 	lw	a2,48(s8)
  404b3c:	8fc70034 	lw	a3,52(s8)
  404b40:	0c10109e 	jal	404278 <iaddr>
  404b44:	00000000 	nop
  404b48:	afc20024 	sw	v0,36(s8)
  404b4c:	10000054 	b	404ca0 <ee_vsprintf+0x6e8>
  404b50:	00000000 	nop
  404b54:	24020008 	li	v0,8
  404b58:	afc20020 	sw	v0,32(s8)
  404b5c:	10000029 	b	404c04 <ee_vsprintf+0x64c>
  404b60:	00000000 	nop
  404b64:	8fc2002c 	lw	v0,44(s8)
  404b68:	34420040 	ori	v0,v0,0x40
  404b6c:	afc2002c 	sw	v0,44(s8)
  404b70:	24020010 	li	v0,16
  404b74:	afc20020 	sw	v0,32(s8)
  404b78:	10000022 	b	404c04 <ee_vsprintf+0x64c>
  404b7c:	00000000 	nop
  404b80:	8fc2002c 	lw	v0,44(s8)
  404b84:	34420002 	ori	v0,v0,0x2
  404b88:	afc2002c 	sw	v0,44(s8)
  404b8c:	1000001c 	b	404c00 <ee_vsprintf+0x648>
  404b90:	00000000 	nop
  404b94:	8fc2004c 	lw	v0,76(s8)
  404b98:	90430000 	lbu	v1,0(v0)
  404b9c:	24020025 	li	v0,37
  404ba0:	10620006 	beq	v1,v0,404bbc <ee_vsprintf+0x604>
  404ba4:	00000000 	nop
  404ba8:	8fc20024 	lw	v0,36(s8)
  404bac:	24430001 	addiu	v1,v0,1
  404bb0:	afc30024 	sw	v1,36(s8)
  404bb4:	24030025 	li	v1,37
  404bb8:	a0430000 	sb	v1,0(v0)
  404bbc:	8fc2004c 	lw	v0,76(s8)
  404bc0:	90420000 	lbu	v0,0(v0)
  404bc4:	10400009 	beqz	v0,404bec <ee_vsprintf+0x634>
  404bc8:	00000000 	nop
  404bcc:	8fc20024 	lw	v0,36(s8)
  404bd0:	24430001 	addiu	v1,v0,1
  404bd4:	afc30024 	sw	v1,36(s8)
  404bd8:	8fc3004c 	lw	v1,76(s8)
  404bdc:	90630000 	lbu	v1,0(v1)
  404be0:	a0430000 	sb	v1,0(v0)
  404be4:	1000002e 	b	404ca0 <ee_vsprintf+0x6e8>
  404be8:	00000000 	nop
  404bec:	8fc2004c 	lw	v0,76(s8)
  404bf0:	2442ffff 	addiu	v0,v0,-1
  404bf4:	afc2004c 	sw	v0,76(s8)
  404bf8:	10000029 	b	404ca0 <ee_vsprintf+0x6e8>
  404bfc:	00000000 	nop
  404c00:	00000000 	nop
  404c04:	8fc30038 	lw	v1,56(s8)
  404c08:	2402006c 	li	v0,108
  404c0c:	14620008 	bne	v1,v0,404c30 <ee_vsprintf+0x678>
  404c10:	00000000 	nop
  404c14:	8fc20050 	lw	v0,80(s8)
  404c18:	24430004 	addiu	v1,v0,4
  404c1c:	afc30050 	sw	v1,80(s8)
  404c20:	8c420000 	lw	v0,0(v0)
  404c24:	afc20018 	sw	v0,24(s8)
  404c28:	10000011 	b	404c70 <ee_vsprintf+0x6b8>
  404c2c:	00000000 	nop
  404c30:	8fc2002c 	lw	v0,44(s8)
  404c34:	30420002 	andi	v0,v0,0x2
  404c38:	10400008 	beqz	v0,404c5c <ee_vsprintf+0x6a4>
  404c3c:	00000000 	nop
  404c40:	8fc20050 	lw	v0,80(s8)
  404c44:	24430004 	addiu	v1,v0,4
  404c48:	afc30050 	sw	v1,80(s8)
  404c4c:	8c420000 	lw	v0,0(v0)
  404c50:	afc20018 	sw	v0,24(s8)
  404c54:	10000006 	b	404c70 <ee_vsprintf+0x6b8>
  404c58:	00000000 	nop
  404c5c:	8fc20050 	lw	v0,80(s8)
  404c60:	24430004 	addiu	v1,v0,4
  404c64:	afc30050 	sw	v1,80(s8)
  404c68:	8c420000 	lw	v0,0(v0)
  404c6c:	afc20018 	sw	v0,24(s8)
  404c70:	8fc30018 	lw	v1,24(s8)
  404c74:	8fc20034 	lw	v0,52(s8)
  404c78:	afa20010 	sw	v0,16(sp)
  404c7c:	8fc2002c 	lw	v0,44(s8)
  404c80:	afa20014 	sw	v0,20(sp)
  404c84:	8fc40024 	lw	a0,36(s8)
  404c88:	00602825 	move	a1,v1
  404c8c:	8fc60020 	lw	a2,32(s8)
  404c90:	8fc70030 	lw	a3,48(s8)
  404c94:	0c100f1d 	jal	403c74 <number>
  404c98:	00000000 	nop
  404c9c:	afc20024 	sw	v0,36(s8)
  404ca0:	8fc2004c 	lw	v0,76(s8)
  404ca4:	24420001 	addiu	v0,v0,1
  404ca8:	afc2004c 	sw	v0,76(s8)
  404cac:	8fc2004c 	lw	v0,76(s8)
  404cb0:	90420000 	lbu	v0,0(v0)
  404cb4:	1440fe4b 	bnez	v0,4045e4 <ee_vsprintf+0x2c>
  404cb8:	00000000 	nop
  404cbc:	8fc20024 	lw	v0,36(s8)
  404cc0:	a0400000 	sb	zero,0(v0)
  404cc4:	8fc30024 	lw	v1,36(s8)
  404cc8:	8fc20048 	lw	v0,72(s8)
  404ccc:	00621023 	subu	v0,v1,v0
  404cd0:	03c0e825 	move	sp,s8
  404cd4:	8fbf0044 	lw	ra,68(sp)
  404cd8:	8fbe0040 	lw	s8,64(sp)
  404cdc:	27bd0048 	addiu	sp,sp,72
  404ce0:	03e00008 	jr	ra
  404ce4:	00000000 	nop

00404ce8 <uart_send_char>:
  404ce8:	27bdfff8 	addiu	sp,sp,-8
  404cec:	afbe0004 	sw	s8,4(sp)
  404cf0:	03a0f025 	move	s8,sp
  404cf4:	00801025 	move	v0,a0
  404cf8:	a3c20008 	sb	v0,8(s8)
  404cfc:	00000000 	nop
  404d00:	3c02bfd0 	lui	v0,0xbfd0
  404d04:	344203fc 	ori	v0,v0,0x3fc
  404d08:	90420000 	lbu	v0,0(v0)
  404d0c:	30420001 	andi	v0,v0,0x1
  404d10:	1040fffb 	beqz	v0,404d00 <uart_send_char+0x18>
  404d14:	00000000 	nop
  404d18:	3c02bfd0 	lui	v0,0xbfd0
  404d1c:	344203f8 	ori	v0,v0,0x3f8
  404d20:	93c30008 	lbu	v1,8(s8)
  404d24:	a0430000 	sb	v1,0(v0)
  404d28:	03c0e825 	move	sp,s8
  404d2c:	8fbe0004 	lw	s8,4(sp)
  404d30:	27bd0008 	addiu	sp,sp,8
  404d34:	03e00008 	jr	ra
  404d38:	00000000 	nop

00404d3c <ee_printf>:
  404d3c:	27bdfbd8 	addiu	sp,sp,-1064
  404d40:	afbf0424 	sw	ra,1060(sp)
  404d44:	afbe0420 	sw	s8,1056(sp)
  404d48:	03a0f025 	move	s8,sp
  404d4c:	afc5042c 	sw	a1,1068(s8)
  404d50:	afc60430 	sw	a2,1072(s8)
  404d54:	afc70434 	sw	a3,1076(s8)
  404d58:	afc40428 	sw	a0,1064(s8)
  404d5c:	afc00014 	sw	zero,20(s8)
  404d60:	27c2042c 	addiu	v0,s8,1068
  404d64:	afc20418 	sw	v0,1048(s8)
  404d68:	8fc20418 	lw	v0,1048(s8)
  404d6c:	27c30018 	addiu	v1,s8,24
  404d70:	00602025 	move	a0,v1
  404d74:	8fc50428 	lw	a1,1064(s8)
  404d78:	00403025 	move	a2,v0
  404d7c:	0c10116e 	jal	4045b8 <ee_vsprintf>
  404d80:	00000000 	nop
  404d84:	27c20018 	addiu	v0,s8,24
  404d88:	afc20010 	sw	v0,16(s8)
  404d8c:	1000000c 	b	404dc0 <ee_printf+0x84>
  404d90:	00000000 	nop
  404d94:	8fc20010 	lw	v0,16(s8)
  404d98:	90420000 	lbu	v0,0(v0)
  404d9c:	00402025 	move	a0,v0
  404da0:	0c10133a 	jal	404ce8 <uart_send_char>
  404da4:	00000000 	nop
  404da8:	8fc20014 	lw	v0,20(s8)
  404dac:	24420001 	addiu	v0,v0,1
  404db0:	afc20014 	sw	v0,20(s8)
  404db4:	8fc20010 	lw	v0,16(s8)
  404db8:	24420001 	addiu	v0,v0,1
  404dbc:	afc20010 	sw	v0,16(s8)
  404dc0:	8fc20010 	lw	v0,16(s8)
  404dc4:	90420000 	lbu	v0,0(v0)
  404dc8:	1440fff2 	bnez	v0,404d94 <ee_printf+0x58>
  404dcc:	00000000 	nop
  404dd0:	8fc20014 	lw	v0,20(s8)
  404dd4:	03c0e825 	move	sp,s8
  404dd8:	8fbf0424 	lw	ra,1060(sp)
  404ddc:	8fbe0420 	lw	s8,1056(sp)
  404de0:	27bd0428 	addiu	sp,sp,1064
  404de4:	03e00008 	jr	ra
  404de8:	00000000 	nop
